---
triple:          'arm64-apple-darwin'
binary-path:     '/Users/thomas/Library/Mobile Documents/com~apple~CloudDocs/c++/test/output/Bj'
relocations:
  - { offsetInCU: 0x6B4C, offset: 0x6B4C, size: 0x8, addend: 0x0, symName: __ZNSt3__114random_shuffleB7v160006INS_11__wrap_iterIP4CardEEEEvT_S5_, symObjAddr: 0x3DD4, symBinAddr: 0x100007FD0, symSize: 0x16C }
  - { offsetInCU: 0x6F60, offset: 0x6F60, size: 0x8, addend: 0x0, symName: __ZNSt3__124__put_character_sequenceB7v160006IcNS_11char_traitsIcEEEERNS_13basic_ostreamIT_T0_EES7_PKS4_m, symObjAddr: 0x6620, symBinAddr: 0x10000A81C, symSize: 0x1F4 }
  - { offsetInCU: 0x8EA9, offset: 0x8EA9, size: 0x8, addend: 0x0, symName: __ZNSt3__1lsB7v160006INS_11char_traitsIcEEEERNS_13basic_ostreamIcT_EES6_PKc, symObjAddr: 0xF8, symBinAddr: 0x1000042F4, symSize: 0x48 }
  - { offsetInCU: 0x8EEF, offset: 0x8EEF, size: 0x8, addend: 0x0, symName: __ZNSt3__119__debug_db_insert_cB7v160006INS_6vectorI4CardNS_9allocatorIS2_EEEEEEvPT_, symObjAddr: 0x584, symBinAddr: 0x100004780, symSize: 0x10 }
  - { offsetInCU: 0x8F20, offset: 0x8F20, size: 0x8, addend: 0x0, symName: __ZNSt3__119__debug_db_insert_cB7v160006INS_6vectorI6PlayerNS_9allocatorIS2_EEEEEEvPT_, symObjAddr: 0x6E4, symBinAddr: 0x1000048E0, symSize: 0x10 }
  - { offsetInCU: 0x8F51, offset: 0x8F51, size: 0x8, addend: 0x0, symName: __ZNSt3__118__debug_db_erase_cB7v160006INS_6vectorI4CardNS_9allocatorIS2_EEEEEEvPT_, symObjAddr: 0x9BC, symBinAddr: 0x100004BB8, symSize: 0x10 }
  - { offsetInCU: 0x8F82, offset: 0x8F82, size: 0x8, addend: 0x0, symName: __ZNSt3__112__to_addressB7v160006I4CardEEPT_S3_, symObjAddr: 0xB00, symBinAddr: 0x100004CFC, symSize: 0x14 }
  - { offsetInCU: 0x8FB7, offset: 0x8FB7, size: 0x8, addend: 0x0, symName: __ZNSt3__130__libcpp_is_constant_evaluatedB7v160006Ev, symObjAddr: 0xC68, symBinAddr: 0x100004E64, symSize: 0xC }
  - { offsetInCU: 0x8FD4, offset: 0x8FD4, size: 0x8, addend: 0x0, symName: __ZNSt3__119__libcpp_deallocateB7v160006EPvmm, symObjAddr: 0xC74, symBinAddr: 0x100004E70, symSize: 0x30 }
  - { offsetInCU: 0x901C, offset: 0x901C, size: 0x8, addend: 0x0, symName: __ZNSt3__127__do_deallocate_handle_sizeB7v160006IJEEEvPvmDpT_, symObjAddr: 0xCA4, symBinAddr: 0x100004EA0, symSize: 0x28 }
  - { offsetInCU: 0x905A, offset: 0x905A, size: 0x8, addend: 0x0, symName: __ZNSt3__124__libcpp_operator_deleteB7v160006IJPvEEEvDpT_, symObjAddr: 0xCCC, symBinAddr: 0x100004EC8, symSize: 0x24 }
  - { offsetInCU: 0x908F, offset: 0x908F, size: 0x8, addend: 0x0, symName: __ZNSt3__112__to_addressB7v160006I6PlayerEEPT_S3_, symObjAddr: 0x10CC, symBinAddr: 0x1000052C8, symSize: 0x14 }
  - { offsetInCU: 0x90C4, offset: 0x90C4, size: 0x8, addend: 0x0, symName: __ZNSt3__122__make_exception_guardB7v160006INS_6vectorI4CardNS_9allocatorIS2_EEE16__destroy_vectorEEENS_28__exception_guard_exceptionsIT_EES8_, symObjAddr: 0x13C4, symBinAddr: 0x1000055C0, symSize: 0x40 }
  - { offsetInCU: 0x90F9, offset: 0x90F9, size: 0x8, addend: 0x0, symName: __ZNSt3__119__allocate_at_leastB7v160006INS_9allocatorI4CardEEEENS_19__allocation_resultINS_16allocator_traitsIT_E7pointerEEERS6_m, symObjAddr: 0x1710, symBinAddr: 0x10000590C, symSize: 0x40 }
  - { offsetInCU: 0x913C, offset: 0x913C, size: 0x8, addend: 0x0, symName: __ZNSt3__13minB7v160006ImEERKT_S3_S3_, symObjAddr: 0x1840, symBinAddr: 0x100005A3C, symSize: 0x2C }
  - { offsetInCU: 0x9380, offset: 0x9380, size: 0x8, addend: 0x0, symName: __ZNSt3__13minB7v160006ImNS_6__lessImmEEEERKT_S5_S5_T0_, symObjAddr: 0x18A4, symBinAddr: 0x100005AA0, symSize: 0x54 }
  - { offsetInCU: 0x9415, offset: 0x9415, size: 0x8, addend: 0x0, symName: __ZNSt3__120__throw_length_errorB7v160006EPKc, symObjAddr: 0x194C, symBinAddr: 0x100005B48, symSize: 0x64 }
  - { offsetInCU: 0x943D, offset: 0x943D, size: 0x8, addend: 0x0, symName: __ZNSt3__117__libcpp_allocateB7v160006Emm, symObjAddr: 0x1AF0, symBinAddr: 0x100005CEC, symSize: 0x28 }
  - { offsetInCU: 0x947A, offset: 0x947A, size: 0x8, addend: 0x0, symName: __ZNSt3__121__libcpp_operator_newB7v160006IJmEEEPvDpT_, symObjAddr: 0x1B18, symBinAddr: 0x100005D14, symSize: 0x24 }
  - { offsetInCU: 0x94B3, offset: 0x94B3, size: 0x8, addend: 0x0, symName: __ZNSt3__130__uninitialized_allocator_copyB7v160006INS_9allocatorI4CardEEPS2_S4_S4_EET2_RT_T0_T1_S5_, symObjAddr: 0x1BB0, symBinAddr: 0x100005DAC, symSize: 0xFC }
  - { offsetInCU: 0x9551, offset: 0x9551, size: 0x8, addend: 0x0, symName: __ZNSt3__122__make_exception_guardB7v160006INS_29_AllocatorDestroyRangeReverseINS_9allocatorI4CardEEPS3_EEEENS_28__exception_guard_exceptionsIT_EES8_, symObjAddr: 0x1D24, symBinAddr: 0x100005F20, symSize: 0x4C }
  - { offsetInCU: 0x9587, offset: 0x9587, size: 0x8, addend: 0x0, symName: __ZNSt3__119__allocator_destroyB7v160006INS_9allocatorI4CardEENS_16reverse_iteratorIPS2_EES6_EEvRT_T0_T1_, symObjAddr: 0x1FAC, symBinAddr: 0x1000061A8, symSize: 0x70 }
  - { offsetInCU: 0x95EA, offset: 0x95EA, size: 0x8, addend: 0x0, symName: __ZNSt3__1neB7v160006IP4CardS2_EEbRKNS_16reverse_iteratorIT_EERKNS3_IT0_EE, symObjAddr: 0x2050, symBinAddr: 0x10000624C, symSize: 0x48 }
  - { offsetInCU: 0x9636, offset: 0x9636, size: 0x8, addend: 0x0, symName: __ZNSt3__112__to_addressB7v160006INS_16reverse_iteratorIP4CardEEvEENS_5decayIDTclsr19__to_address_helperIT_EE6__callclsr3stdE7declvalIRKS6_EEEEE4typeES8_, symObjAddr: 0x2098, symBinAddr: 0x100006294, symSize: 0x24 }
  - { offsetInCU: 0x9695, offset: 0x9695, size: 0x8, addend: 0x0, symName: __ZNSt3__13maxB7v160006ImEERKT_S3_S3_, symObjAddr: 0x25A8, symBinAddr: 0x1000067A4, symSize: 0x2C }
  - { offsetInCU: 0x96D8, offset: 0x96D8, size: 0x8, addend: 0x0, symName: __ZNSt3__13maxB7v160006ImNS_6__lessImmEEEERKT_S5_S5_T0_, symObjAddr: 0x26D0, symBinAddr: 0x1000068CC, symSize: 0x54 }
  - { offsetInCU: 0x9732, offset: 0x9732, size: 0x8, addend: 0x0, symName: __ZNSt3__119__allocate_at_leastB7v160006INS_9allocatorI6PlayerEEEENS_19__allocation_resultINS_16allocator_traitsIT_E7pointerEEERS6_m, symObjAddr: 0x2840, symBinAddr: 0x100006A3C, symSize: 0x40 }
  - { offsetInCU: 0x9775, offset: 0x9775, size: 0x8, addend: 0x0, symName: __ZNSt3__142__uninitialized_allocator_move_if_noexceptB7v160006INS_9allocatorI6PlayerEENS_16reverse_iteratorIPS2_EES6_S6_EET2_RT_T0_T1_S7_, symObjAddr: 0x2AFC, symBinAddr: 0x100006CF8, symSize: 0x134 }
  - { offsetInCU: 0x9815, offset: 0x9815, size: 0x8, addend: 0x0, symName: __ZNSt3__14swapB7v160006IP6PlayerEEvRT_S4_, symObjAddr: 0x2C7C, symBinAddr: 0x100006E78, symSize: 0x3C }
  - { offsetInCU: 0x9866, offset: 0x9866, size: 0x8, addend: 0x0, symName: __ZNSt3__125__debug_db_invalidate_allB7v160006INS_6vectorI6PlayerNS_9allocatorIS2_EEEEEEvPT_, symObjAddr: 0x2D80, symBinAddr: 0x100006F7C, symSize: 0x10 }
  - { offsetInCU: 0x9897, offset: 0x9897, size: 0x8, addend: 0x0, symName: __ZNSt3__122__make_exception_guardB7v160006INS_29_AllocatorDestroyRangeReverseINS_9allocatorI6PlayerEENS_16reverse_iteratorIPS3_EEEEEENS_28__exception_guard_exceptionsIT_EESA_, symObjAddr: 0x2DD8, symBinAddr: 0x100006FD4, symSize: 0x4C }
  - { offsetInCU: 0x98CD, offset: 0x98CD, size: 0x8, addend: 0x0, symName: __ZNSt3__1neB7v160006IP6PlayerS2_EEbRKNS_16reverse_iteratorIT_EERKNS3_IT0_EE, symObjAddr: 0x2E68, symBinAddr: 0x100007064, symSize: 0x48 }
  - { offsetInCU: 0x9919, offset: 0x9919, size: 0x8, addend: 0x0, symName: __ZNSt3__112__to_addressB7v160006INS_16reverse_iteratorIP6PlayerEEvEENS_5decayIDTclsr19__to_address_helperIT_EE6__callclsr3stdE7declvalIRKS6_EEEEE4typeES8_, symObjAddr: 0x2EE4, symBinAddr: 0x1000070E0, symSize: 0x24 }
  - { offsetInCU: 0x9978, offset: 0x9978, size: 0x8, addend: 0x0, symName: __ZNSt3__119__allocator_destroyB7v160006INS_9allocatorI6PlayerEENS_16reverse_iteratorINS4_IPS2_EEEES7_EEvRT_T0_T1_, symObjAddr: 0x31D0, symBinAddr: 0x1000073CC, symSize: 0x70 }
  - { offsetInCU: 0x99DD, offset: 0x99DD, size: 0x8, addend: 0x0, symName: __ZNSt3__1neB7v160006INS_16reverse_iteratorIP6PlayerEES4_EEbRKNS1_IT_EERKNS1_IT0_EE, symObjAddr: 0x327C, symBinAddr: 0x100007478, symSize: 0x60 }
  - { offsetInCU: 0x9A29, offset: 0x9A29, size: 0x8, addend: 0x0, symName: __ZNSt3__112__to_addressB7v160006INS_16reverse_iteratorINS1_IP6PlayerEEEEvEENS_5decayIDTclsr19__to_address_helperIT_EE6__callclsr3stdE7declvalIRKS7_EEEEE4typeES9_, symObjAddr: 0x3308, symBinAddr: 0x100007504, symSize: 0x24 }
  - { offsetInCU: 0x9A88, offset: 0x9A88, size: 0x8, addend: 0x0, symName: __ZNSt3__14endlB7v160006IcNS_11char_traitsIcEEEERNS_13basic_ostreamIT_T0_EES7_, symObjAddr: 0x37F4, symBinAddr: 0x1000079F0, symSize: 0x58 }
  - { offsetInCU: 0x9AC8, offset: 0x9AC8, size: 0x8, addend: 0x0, symName: __ZNSt3__1neB7v160006IP6PlayerEEbRKNS_11__wrap_iterIT_EES7_, symObjAddr: 0x3980, symBinAddr: 0x100007B7C, symSize: 0x34 }
  - { offsetInCU: 0x9B0B, offset: 0x9B0B, size: 0x8, addend: 0x0, symName: __ZNSt3__19use_facetB7v160006INS_5ctypeIcEEEERKT_RKNS_6localeE, symObjAddr: 0x3C60, symBinAddr: 0x100007E5C, symSize: 0x2C }
  - { offsetInCU: 0x9FDA, offset: 0x9FDA, size: 0x8, addend: 0x0, symName: __ZNSt3__125__debug_db_invalidate_allB7v160006INS_6vectorI4CardNS_9allocatorIS2_EEEEEEvPT_, symObjAddr: 0x4070, symBinAddr: 0x10000826C, symSize: 0x10 }
  - { offsetInCU: 0xA00B, offset: 0xA00B, size: 0x8, addend: 0x0, symName: __ZNSt3__142__uninitialized_allocator_move_if_noexceptB7v160006INS_9allocatorI4CardEENS_16reverse_iteratorIPS2_EES6_S2_vEET1_RT_T0_SA_S7_, symObjAddr: 0x46D0, symBinAddr: 0x1000088CC, symSize: 0xE8 }
  - { offsetInCU: 0xA088, offset: 0xA088, size: 0x8, addend: 0x0, symName: __ZNSt3__14swapB7v160006IP4CardEEvRT_S4_, symObjAddr: 0x47B8, symBinAddr: 0x1000089B4, symSize: 0x3C }
  - { offsetInCU: 0xA0FE, offset: 0xA0FE, size: 0x8, addend: 0x0, symName: __ZNSt3__114__construct_atB7v160006I4CardJS1_EPS1_EEPT_S4_DpOT0_, symObjAddr: 0x47F4, symBinAddr: 0x1000089F0, symSize: 0x34 }
  - { offsetInCU: 0xA16E, offset: 0xA16E, size: 0x8, addend: 0x0, symName: __ZNSt3__14moveB7v160006INS_16reverse_iteratorIP4CardEES4_EET0_T_S6_S5_, symObjAddr: 0x4828, symBinAddr: 0x100008A24, symSize: 0x78 }
  - { offsetInCU: 0xA1C8, offset: 0xA1C8, size: 0x8, addend: 0x0, symName: __ZNSt3__16__moveB7v160006INS_17_ClassicAlgPolicyENS_16reverse_iteratorIP4CardEES5_S5_EENS_4pairIT0_T2_EES7_T1_S8_, symObjAddr: 0x48A0, symBinAddr: 0x100008A9C, symSize: 0x64 }
  - { offsetInCU: 0xA234, offset: 0xA234, size: 0x8, addend: 0x0, symName: __ZNSt3__123__dispatch_copy_or_moveB7v160006INS_17_ClassicAlgPolicyENS_11__move_loopIS1_EENS_14__move_trivialENS_16reverse_iteratorIP4CardEES8_S8_EENS_4pairIT2_T4_EESA_T3_SB_, symObjAddr: 0x4904, symBinAddr: 0x100008B00, symSize: 0x7C }
  - { offsetInCU: 0xA2B2, offset: 0xA2B2, size: 0x8, addend: 0x0, symName: __ZNSt3__121__unwrap_and_dispatchB7v160006INS_10__overloadINS_11__move_loopINS_17_ClassicAlgPolicyEEENS_14__move_trivialEEENS_16reverse_iteratorIP4CardEESA_SA_Li0EEENS_4pairIT0_T2_EESC_T1_SD_, symObjAddr: 0x4980, symBinAddr: 0x100008B7C, symSize: 0x12C }
  - { offsetInCU: 0xA342, offset: 0xA342, size: 0x8, addend: 0x0, symName: __ZNSt3__114__unwrap_rangeB7v160006INS_16reverse_iteratorIP4CardEES4_EENS_4pairIT0_S6_EET_S8_, symObjAddr: 0x4AAC, symBinAddr: 0x100008CA8, symSize: 0x84 }
  - { offsetInCU: 0xA496, offset: 0xA496, size: 0x8, addend: 0x0, symName: __ZNSt3__113__unwrap_iterB7v160006INS_16reverse_iteratorIP4CardEENS_18__unwrap_iter_implIS4_Lb0EEELi0EEEDTclsrT0_8__unwrapclsr3stdE7declvalIT_EEEES8_, symObjAddr: 0x4BD8, symBinAddr: 0x100008DD4, symSize: 0x44 }
  - { offsetInCU: 0xA4DA, offset: 0xA4DA, size: 0x8, addend: 0x0, symName: __ZNSt3__19make_pairB7v160006INS_16reverse_iteratorIP4CardEES4_EENS_4pairINS_18__unwrap_ref_decayIT_E4typeENS6_IT0_E4typeEEEOS7_OSA_, symObjAddr: 0x4C1C, symBinAddr: 0x100008E18, symSize: 0x38 }
  - { offsetInCU: 0xA529, offset: 0xA529, size: 0x8, addend: 0x0, symName: __ZNSt3__114__rewrap_rangeB7v160006INS_16reverse_iteratorIP4CardEES4_EET_S5_T0_, symObjAddr: 0x4C54, symBinAddr: 0x100008E50, symSize: 0x5C }
  - { offsetInCU: 0xA575, offset: 0xA575, size: 0x8, addend: 0x0, symName: __ZNSt3__113__rewrap_iterB7v160006INS_16reverse_iteratorIP4CardEES4_NS_18__unwrap_iter_implIS4_Lb0EEEEET_S7_T0_, symObjAddr: 0x4CB0, symBinAddr: 0x100008EAC, symSize: 0x88 }
  - { offsetInCU: 0xA67C, offset: 0xA67C, size: 0x8, addend: 0x0, symName: __ZNSt3__1miB7v160006IP4CardS2_EENS_11__wrap_iterIT_E15difference_typeERKS5_RKNS3_IT0_EE, symObjAddr: 0x504C, symBinAddr: 0x100009248, symSize: 0x48 }
  - { offsetInCU: 0xA6C8, offset: 0xA6C8, size: 0x8, addend: 0x0, symName: __ZNSt3__1ltB7v160006IP4CardEEbRKNS_11__wrap_iterIT_EES7_, symObjAddr: 0x50F0, symBinAddr: 0x1000092EC, symSize: 0x48 }
  - { offsetInCU: 0xA70B, offset: 0xA70B, size: 0x8, addend: 0x0, symName: __ZNSt3__14swapB7v160006I4CardEEvRT_S3_, symObjAddr: 0x52E8, symBinAddr: 0x1000094E4, symSize: 0x54 }
  - { offsetInCU: 0xA75C, offset: 0xA75C, size: 0x8, addend: 0x0, symName: __ZNSt3__113__countl_zeroB7v160006ImEEiT_, symObjAddr: 0x5494, symBinAddr: 0x100009690, symSize: 0x54 }
  - { offsetInCU: 0xA791, offset: 0xA791, size: 0x8, addend: 0x0, symName: __ZNSt3__112__libcpp_clzB7v160006Em, symObjAddr: 0x5958, symBinAddr: 0x100009B54, symSize: 0x1C }
  - { offsetInCU: 0xA7BD, offset: 0xA7BD, size: 0x8, addend: 0x0, symName: __ZNSt3__1eqB7v160006IP6PlayerEEbRKNS_11__wrap_iterIT_EES7_, symObjAddr: 0x5B00, symBinAddr: 0x100009CFC, symSize: 0x48 }
  - { offsetInCU: 0xA800, offset: 0xA800, size: 0x8, addend: 0x0, symName: __ZNSt3__1neB7v160006IP4CardEEbRKNS_11__wrap_iterIT_EES7_, symObjAddr: 0x6010, symBinAddr: 0x10000A20C, symSize: 0x34 }
  - { offsetInCU: 0xA843, offset: 0xA843, size: 0x8, addend: 0x0, symName: __ZNSt3__1neB7v160006IPK4CardEEbRKNS_11__wrap_iterIT_EES8_, symObjAddr: 0x6144, symBinAddr: 0x10000A340, symSize: 0x34 }
  - { offsetInCU: 0xA886, offset: 0xA886, size: 0x8, addend: 0x0, symName: __ZNSt3__1eqB7v160006IPK4CardEEbRKNS_11__wrap_iterIT_EES8_, symObjAddr: 0x6244, symBinAddr: 0x10000A440, symSize: 0x48 }
  - { offsetInCU: 0xA8C9, offset: 0xA8C9, size: 0x8, addend: 0x0, symName: __ZNSt3__1eqB7v160006IP4CardEEbRKNS_11__wrap_iterIT_EES7_, symObjAddr: 0x62A4, symBinAddr: 0x10000A4A0, symSize: 0x48 }
  - { offsetInCU: 0xA90C, offset: 0xA90C, size: 0x8, addend: 0x0, symName: __ZNSt3__118__debug_db_erase_cB7v160006INS_6vectorI6PlayerNS_9allocatorIS2_EEEEEEvPT_, symObjAddr: 0x6548, symBinAddr: 0x10000A744, symSize: 0x10 }
  - { offsetInCU: 0xA93D, offset: 0xA93D, size: 0x8, addend: 0x0, symName: __ZNSt3__116__pad_and_outputB7v160006IcNS_11char_traitsIcEEEENS_19ostreambuf_iteratorIT_T0_EES6_PKS4_S8_S8_RNS_8ios_baseES4_, symObjAddr: 0x6878, symBinAddr: 0x10000AA74, symSize: 0x248 }
  - { offsetInCU: 0xAA0C, offset: 0xAA0C, size: 0x8, addend: 0x0, symName: __ZNSt3__119__debug_db_insert_cB7v160006INS_12basic_stringIcNS_11char_traitsIcEENS_9allocatorIcEEEEEEvPT_, symObjAddr: 0x6D34, symBinAddr: 0x10000AF30, symSize: 0x10 }
  - { offsetInCU: 0xAA3D, offset: 0xAA3D, size: 0x8, addend: 0x0, symName: __ZNSt3__112__to_addressB7v160006IKcEEPT_S3_, symObjAddr: 0x6E00, symBinAddr: 0x10000AFFC, symSize: 0x14 }
  - { offsetInCU: 0xAAA5, offset: 0xAAA5, size: 0x8, addend: 0x0, symName: __ZNSt3__118__constexpr_strlenB7v160006EPKc, symObjAddr: 0x7080, symBinAddr: 0x10000B27C, symSize: 0x24 }
  - { offsetInCU: 0xACE8, offset: 0xACE8, size: 0x8, addend: 0x0, symName: __ZSt28__throw_bad_array_new_lengthB7v160006v, symObjAddr: 0x1ABC, symBinAddr: 0x100005CB8, symSize: 0x34 }
  - { offsetInCU: 0xB49B, offset: 0xB49B, size: 0x8, addend: 0x0, symName: __ZNSt3__16vectorI6PlayerNS_9allocatorIS1_EEE26__swap_out_circular_bufferERNS_14__split_bufferIS1_RS3_EE, symObjAddr: 0x2394, symBinAddr: 0x100006590, symSize: 0x118 }
  - { offsetInCU: 0xB52C, offset: 0xB52C, size: 0x8, addend: 0x0, symName: __ZNSt3__16vectorI4CardNS_9allocatorIS1_EEE26__swap_out_circular_bufferERNS_14__split_bufferIS1_RS3_EE, symObjAddr: 0x4354, symBinAddr: 0x100008550, symSize: 0x118 }
  - { offsetInCU: 0xB5C0, offset: 0xB5C0, size: 0x8, addend: 0x0, symName: __ZNSt3__124uniform_int_distributionIlEclINS_12__rs_defaultEEElRT_RKNS1_10param_typeE, symObjAddr: 0x5138, symBinAddr: 0x100009334, symSize: 0x174 }
  - { offsetInCU: 0xD93D, offset: 0xD93D, size: 0x8, addend: 0x0, symName: _main, symObjAddr: 0x0, symBinAddr: 0x1000041FC, symSize: 0xF8 }
  - { offsetInCU: 0xDA93, offset: 0xDA93, size: 0x8, addend: 0x0, symName: __ZN4GameC1Ev, symObjAddr: 0x140, symBinAddr: 0x10000433C, symSize: 0x2C }
  - { offsetInCU: 0xDABC, offset: 0xDABC, size: 0x8, addend: 0x0, symName: __ZN4Game14InitializeGameEi, symObjAddr: 0x16C, symBinAddr: 0x100004368, symSize: 0xBC }
  - { offsetInCU: 0xDB03, offset: 0xDB03, size: 0x8, addend: 0x0, symName: __ZN4Game9PlayRoundEv, symObjAddr: 0x228, symBinAddr: 0x100004424, symSize: 0x1A4 }
  - { offsetInCU: 0xDB98, offset: 0xDB98, size: 0x8, addend: 0x0, symName: __ZN4GameD1Ev, symObjAddr: 0x3CC, symBinAddr: 0x1000045C8, symSize: 0x2C }
  - { offsetInCU: 0xDBC3, offset: 0xDBC3, size: 0x8, addend: 0x0, symName: __ZN4GameC2Ev, symObjAddr: 0x404, symBinAddr: 0x100004600, symSize: 0x74 }
  - { offsetInCU: 0xDBEC, offset: 0xDBEC, size: 0x8, addend: 0x0, symName: __ZNSt3__16vectorI4CardNS_9allocatorIS1_EEEC1B7v160006Ev, symObjAddr: 0x478, symBinAddr: 0x100004674, symSize: 0x2C }
  - { offsetInCU: 0xDC15, offset: 0xDC15, size: 0x8, addend: 0x0, symName: __ZNSt3__16vectorI6PlayerNS_9allocatorIS1_EEEC1B7v160006Ev, symObjAddr: 0x4A4, symBinAddr: 0x1000046A0, symSize: 0x2C }
  - { offsetInCU: 0xDC3E, offset: 0xDC3E, size: 0x8, addend: 0x0, symName: __ZNSt3__16vectorI4CardNS_9allocatorIS1_EEED1B7v160006Ev, symObjAddr: 0x4D0, symBinAddr: 0x1000046CC, symSize: 0x2C }
  - { offsetInCU: 0xDC67, offset: 0xDC67, size: 0x8, addend: 0x0, symName: __ZNSt3__16vectorI4CardNS_9allocatorIS1_EEEC2B7v160006Ev, symObjAddr: 0x4FC, symBinAddr: 0x1000046F8, symSize: 0x4C }
  - { offsetInCU: 0xDC9A, offset: 0xDC9A, size: 0x8, addend: 0x0, symName: __ZNSt3__117__compressed_pairIP4CardNS_9allocatorIS1_EEEC1B7v160006IDnNS_18__default_init_tagEEEOT_OT0_, symObjAddr: 0x548, symBinAddr: 0x100004744, symSize: 0x3C }
  - { offsetInCU: 0xDCF1, offset: 0xDCF1, size: 0x8, addend: 0x0, symName: __ZNSt3__117__compressed_pairIP4CardNS_9allocatorIS1_EEEC2B7v160006IDnNS_18__default_init_tagEEEOT_OT0_, symObjAddr: 0x594, symBinAddr: 0x100004790, symSize: 0x40 }
  - { offsetInCU: 0xDD48, offset: 0xDD48, size: 0x8, addend: 0x0, symName: __ZNSt3__122__compressed_pair_elemIP4CardLi0ELb0EEC2B7v160006IDnvEEOT_, symObjAddr: 0x5D4, symBinAddr: 0x1000047D0, symSize: 0x1C }
  - { offsetInCU: 0xDD89, offset: 0xDD89, size: 0x8, addend: 0x0, symName: __ZNSt3__122__compressed_pair_elemINS_9allocatorI4CardEELi1ELb1EEC2B7v160006ENS_18__default_init_tagE, symObjAddr: 0x5F0, symBinAddr: 0x1000047EC, symSize: 0x2C }
  - { offsetInCU: 0xDDBD, offset: 0xDDBD, size: 0x8, addend: 0x0, symName: __ZNSt3__19allocatorI4CardEC2B7v160006Ev, symObjAddr: 0x61C, symBinAddr: 0x100004818, symSize: 0x2C }
  - { offsetInCU: 0xDDE6, offset: 0xDDE6, size: 0x8, addend: 0x0, symName: __ZNSt3__116__non_trivial_ifILb1ENS_9allocatorI4CardEEEC2B7v160006Ev, symObjAddr: 0x648, symBinAddr: 0x100004844, symSize: 0x14 }
  - { offsetInCU: 0xDE0F, offset: 0xDE0F, size: 0x8, addend: 0x0, symName: __ZNSt3__16vectorI6PlayerNS_9allocatorIS1_EEEC2B7v160006Ev, symObjAddr: 0x65C, symBinAddr: 0x100004858, symSize: 0x4C }
  - { offsetInCU: 0xDE38, offset: 0xDE38, size: 0x8, addend: 0x0, symName: __ZNSt3__117__compressed_pairIP6PlayerNS_9allocatorIS1_EEEC1B7v160006IDnNS_18__default_init_tagEEEOT_OT0_, symObjAddr: 0x6A8, symBinAddr: 0x1000048A4, symSize: 0x3C }
  - { offsetInCU: 0xDE8F, offset: 0xDE8F, size: 0x8, addend: 0x0, symName: __ZNSt3__117__compressed_pairIP6PlayerNS_9allocatorIS1_EEEC2B7v160006IDnNS_18__default_init_tagEEEOT_OT0_, symObjAddr: 0x6F4, symBinAddr: 0x1000048F0, symSize: 0x40 }
  - { offsetInCU: 0xDEE6, offset: 0xDEE6, size: 0x8, addend: 0x0, symName: __ZNSt3__122__compressed_pair_elemIP6PlayerLi0ELb0EEC2B7v160006IDnvEEOT_, symObjAddr: 0x734, symBinAddr: 0x100004930, symSize: 0x1C }
  - { offsetInCU: 0xDF27, offset: 0xDF27, size: 0x8, addend: 0x0, symName: __ZNSt3__122__compressed_pair_elemINS_9allocatorI6PlayerEELi1ELb1EEC2B7v160006ENS_18__default_init_tagE, symObjAddr: 0x750, symBinAddr: 0x10000494C, symSize: 0x2C }
  - { offsetInCU: 0xDF5B, offset: 0xDF5B, size: 0x8, addend: 0x0, symName: __ZNSt3__19allocatorI6PlayerEC2B7v160006Ev, symObjAddr: 0x77C, symBinAddr: 0x100004978, symSize: 0x2C }
  - { offsetInCU: 0xDF84, offset: 0xDF84, size: 0x8, addend: 0x0, symName: __ZNSt3__116__non_trivial_ifILb1ENS_9allocatorI6PlayerEEEC2B7v160006Ev, symObjAddr: 0x7A8, symBinAddr: 0x1000049A4, symSize: 0x14 }
  - { offsetInCU: 0xDFAD, offset: 0xDFAD, size: 0x8, addend: 0x0, symName: __ZNSt3__16vectorI4CardNS_9allocatorIS1_EEED2B7v160006Ev, symObjAddr: 0x7BC, symBinAddr: 0x1000049B8, symSize: 0x3C }
  - { offsetInCU: 0xDFD6, offset: 0xDFD6, size: 0x8, addend: 0x0, symName: __ZNSt3__16vectorI4CardNS_9allocatorIS1_EEE16__destroy_vectorC1ERS4_, symObjAddr: 0x7F8, symBinAddr: 0x1000049F4, symSize: 0x34 }
  - { offsetInCU: 0xE00E, offset: 0xE00E, size: 0x8, addend: 0x0, symName: __ZNSt3__16vectorI4CardNS_9allocatorIS1_EEE16__destroy_vectorclB7v160006Ev, symObjAddr: 0x82C, symBinAddr: 0x100004A28, symSize: 0x9C }
  - { offsetInCU: 0xE033, offset: 0xE033, size: 0x8, addend: 0x0, symName: __ZNSt3__16vectorI4CardNS_9allocatorIS1_EEE16__destroy_vectorC2ERS4_, symObjAddr: 0x8C8, symBinAddr: 0x100004AC4, symSize: 0x20 }
  - { offsetInCU: 0xE06B, offset: 0xE06B, size: 0x8, addend: 0x0, symName: __ZNKSt3__16vectorI4CardNS_9allocatorIS1_EEE17__annotate_deleteB7v160006Ev, symObjAddr: 0x8E8, symBinAddr: 0x100004AE4, symSize: 0xD4 }
  - { offsetInCU: 0xE090, offset: 0xE090, size: 0x8, addend: 0x0, symName: __ZNSt3__16vectorI4CardNS_9allocatorIS1_EEE7__clearB7v160006Ev, symObjAddr: 0x9CC, symBinAddr: 0x100004BC8, symSize: 0x28 }
  - { offsetInCU: 0xE0B5, offset: 0xE0B5, size: 0x8, addend: 0x0, symName: __ZNSt3__116allocator_traitsINS_9allocatorI4CardEEE10deallocateB7v160006ERS3_PS2_m, symObjAddr: 0x9F4, symBinAddr: 0x100004BF0, symSize: 0x34 }
  - { offsetInCU: 0xE0F7, offset: 0xE0F7, size: 0x8, addend: 0x0, symName: __ZNSt3__16vectorI4CardNS_9allocatorIS1_EEE7__allocB7v160006Ev, symObjAddr: 0xA28, symBinAddr: 0x100004C24, symSize: 0x28 }
  - { offsetInCU: 0xE11C, offset: 0xE11C, size: 0x8, addend: 0x0, symName: __ZNKSt3__16vectorI4CardNS_9allocatorIS1_EEE8capacityB7v160006Ev, symObjAddr: 0xA50, symBinAddr: 0x100004C4C, symSize: 0x40 }
  - { offsetInCU: 0xE141, offset: 0xE141, size: 0x8, addend: 0x0, symName: __ZNKSt3__16vectorI4CardNS_9allocatorIS1_EEE31__annotate_contiguous_containerB7v160006EPKvS6_S6_S6_, symObjAddr: 0xA90, symBinAddr: 0x100004C8C, symSize: 0x20 }
  - { offsetInCU: 0xE192, offset: 0xE192, size: 0x8, addend: 0x0, symName: __ZNKSt3__16vectorI4CardNS_9allocatorIS1_EEE4dataB7v160006Ev, symObjAddr: 0xAB0, symBinAddr: 0x100004CAC, symSize: 0x28 }
  - { offsetInCU: 0xE1B7, offset: 0xE1B7, size: 0x8, addend: 0x0, symName: __ZNKSt3__16vectorI4CardNS_9allocatorIS1_EEE4sizeB7v160006Ev, symObjAddr: 0xAD8, symBinAddr: 0x100004CD4, symSize: 0x28 }
  - { offsetInCU: 0xE1DC, offset: 0xE1DC, size: 0x8, addend: 0x0, symName: __ZNSt3__16vectorI4CardNS_9allocatorIS1_EEE22__base_destruct_at_endB7v160006EPS1_, symObjAddr: 0xB14, symBinAddr: 0x100004D10, symSize: 0xA0 }
  - { offsetInCU: 0xE21F, offset: 0xE21F, size: 0x8, addend: 0x0, symName: __ZNSt3__116allocator_traitsINS_9allocatorI4CardEEE7destroyB7v160006IS2_vEEvRS3_PT_, symObjAddr: 0xBB4, symBinAddr: 0x100004DB0, symSize: 0x2C }
  - { offsetInCU: 0xE25C, offset: 0xE25C, size: 0x8, addend: 0x0, symName: __ZNSt3__19allocatorI4CardE7destroyB7v160006EPS1_, symObjAddr: 0xBE0, symBinAddr: 0x100004DDC, symSize: 0x14 }
  - { offsetInCU: 0xE28F, offset: 0xE28F, size: 0x8, addend: 0x0, symName: __ZNSt3__19allocatorI4CardE10deallocateB7v160006EPS1_m, symObjAddr: 0xBF4, symBinAddr: 0x100004DF0, symSize: 0x74 }
  - { offsetInCU: 0xE2D0, offset: 0xE2D0, size: 0x8, addend: 0x0, symName: __ZNSt3__117__compressed_pairIP4CardNS_9allocatorIS1_EEE6secondB7v160006Ev, symObjAddr: 0xCF0, symBinAddr: 0x100004EEC, symSize: 0x24 }
  - { offsetInCU: 0xE2F5, offset: 0xE2F5, size: 0x8, addend: 0x0, symName: __ZNSt3__122__compressed_pair_elemINS_9allocatorI4CardEELi1ELb1EE5__getB7v160006Ev, symObjAddr: 0xD14, symBinAddr: 0x100004F10, symSize: 0x14 }
  - { offsetInCU: 0xE31A, offset: 0xE31A, size: 0x8, addend: 0x0, symName: __ZNKSt3__16vectorI4CardNS_9allocatorIS1_EEE9__end_capB7v160006Ev, symObjAddr: 0xD28, symBinAddr: 0x100004F24, symSize: 0x28 }
  - { offsetInCU: 0xE33F, offset: 0xE33F, size: 0x8, addend: 0x0, symName: __ZNKSt3__117__compressed_pairIP4CardNS_9allocatorIS1_EEE5firstB7v160006Ev, symObjAddr: 0xD50, symBinAddr: 0x100004F4C, symSize: 0x24 }
  - { offsetInCU: 0xE364, offset: 0xE364, size: 0x8, addend: 0x0, symName: __ZNKSt3__122__compressed_pair_elemIP4CardLi0ELb0EE5__getB7v160006Ev, symObjAddr: 0xD74, symBinAddr: 0x100004F70, symSize: 0x14 }
  - { offsetInCU: 0xE388, offset: 0xE388, size: 0x8, addend: 0x0, symName: __ZNSt3__16vectorI6PlayerNS_9allocatorIS1_EEE9push_backB7v160006EOS1_, symObjAddr: 0xD88, symBinAddr: 0x100004F84, symSize: 0x6C }
  - { offsetInCU: 0xE3BE, offset: 0xE3BE, size: 0x8, addend: 0x0, symName: __ZN6PlayerC1Ev, symObjAddr: 0xDF4, symBinAddr: 0x100004FF0, symSize: 0x2C }
  - { offsetInCU: 0xE3E7, offset: 0xE3E7, size: 0x8, addend: 0x0, symName: __ZN6PlayerD1Ev, symObjAddr: 0xE20, symBinAddr: 0x10000501C, symSize: 0x2C }
  - { offsetInCU: 0xE412, offset: 0xE412, size: 0x8, addend: 0x0, symName: __ZN4Game12ChooseDealerEv, symObjAddr: 0xE4C, symBinAddr: 0x100005048, symSize: 0x10 }
  - { offsetInCU: 0xE437, offset: 0xE437, size: 0x8, addend: 0x0, symName: __ZNSt3__16vectorI6PlayerNS_9allocatorIS1_EEE9__end_capB7v160006Ev, symObjAddr: 0xE5C, symBinAddr: 0x100005058, symSize: 0x28 }
  - { offsetInCU: 0xE461, offset: 0xE461, size: 0x8, addend: 0x0, symName: __ZNSt3__16vectorI6PlayerNS_9allocatorIS1_EEE22__construct_one_at_endB7v160006IJS1_EEEvDpOT_, symObjAddr: 0xE84, symBinAddr: 0x100005080, symSize: 0x98 }
  - { offsetInCU: 0xE4AE, offset: 0xE4AE, size: 0x8, addend: 0x0, symName: __ZNSt3__16vectorI6PlayerNS_9allocatorIS1_EEE21__push_back_slow_pathIS1_EEvOT_, symObjAddr: 0xF1C, symBinAddr: 0x100005118, symSize: 0xE0 }
  - { offsetInCU: 0xE50B, offset: 0xE50B, size: 0x8, addend: 0x0, symName: __ZNSt3__117__compressed_pairIP6PlayerNS_9allocatorIS1_EEE5firstB7v160006Ev, symObjAddr: 0xFFC, symBinAddr: 0x1000051F8, symSize: 0x24 }
  - { offsetInCU: 0xE530, offset: 0xE530, size: 0x8, addend: 0x0, symName: __ZNSt3__122__compressed_pair_elemIP6PlayerLi0ELb0EE5__getB7v160006Ev, symObjAddr: 0x1020, symBinAddr: 0x10000521C, symSize: 0x14 }
  - { offsetInCU: 0xE56E, offset: 0xE56E, size: 0x8, addend: 0x0, symName: __ZNSt3__16vectorI6PlayerNS_9allocatorIS1_EEE21_ConstructTransactionC1B7v160006ERS4_m, symObjAddr: 0x1034, symBinAddr: 0x100005230, symSize: 0x3C }
  - { offsetInCU: 0xE5B5, offset: 0xE5B5, size: 0x8, addend: 0x0, symName: __ZNSt3__116allocator_traitsINS_9allocatorI6PlayerEEE9constructB7v160006IS2_JS2_EvEEvRS3_PT_DpOT0_, symObjAddr: 0x1070, symBinAddr: 0x10000526C, symSize: 0x34 }
  - { offsetInCU: 0xE60C, offset: 0xE60C, size: 0x8, addend: 0x0, symName: __ZNSt3__16vectorI6PlayerNS_9allocatorIS1_EEE7__allocB7v160006Ev, symObjAddr: 0x10A4, symBinAddr: 0x1000052A0, symSize: 0x28 }
  - { offsetInCU: 0xE631, offset: 0xE631, size: 0x8, addend: 0x0, symName: __ZNSt3__16vectorI6PlayerNS_9allocatorIS1_EEE21_ConstructTransactionD1B7v160006Ev, symObjAddr: 0x10E0, symBinAddr: 0x1000052DC, symSize: 0x2C }
  - { offsetInCU: 0xE65A, offset: 0xE65A, size: 0x8, addend: 0x0, symName: __ZNSt3__16vectorI6PlayerNS_9allocatorIS1_EEE21_ConstructTransactionC2B7v160006ERS4_m, symObjAddr: 0x110C, symBinAddr: 0x100005308, symSize: 0x4C }
  - { offsetInCU: 0xE6A1, offset: 0xE6A1, size: 0x8, addend: 0x0, symName: __ZNSt3__19allocatorI6PlayerE9constructB7v160006IS1_JS1_EEEvPT_DpOT0_, symObjAddr: 0x1158, symBinAddr: 0x100005354, symSize: 0x30 }
  - { offsetInCU: 0xE6F6, offset: 0xE6F6, size: 0x8, addend: 0x0, symName: __ZN6PlayerC1ERKS_, symObjAddr: 0x1188, symBinAddr: 0x100005384, symSize: 0x34 }
  - { offsetInCU: 0xE72A, offset: 0xE72A, size: 0x8, addend: 0x0, symName: __ZN6PlayerC2ERKS_, symObjAddr: 0x11BC, symBinAddr: 0x1000053B8, symSize: 0x48 }
  - { offsetInCU: 0xE75E, offset: 0xE75E, size: 0x8, addend: 0x0, symName: __ZNSt3__16vectorI4CardNS_9allocatorIS1_EEEC1ERKS4_, symObjAddr: 0x1204, symBinAddr: 0x100005400, symSize: 0x34 }
  - { offsetInCU: 0xE798, offset: 0xE798, size: 0x8, addend: 0x0, symName: __ZNSt3__16vectorI4CardNS_9allocatorIS1_EEEC2ERKS4_, symObjAddr: 0x1238, symBinAddr: 0x100005434, symSize: 0x118 }
  - { offsetInCU: 0xE800, offset: 0xE800, size: 0x8, addend: 0x0, symName: __ZNSt3__116allocator_traitsINS_9allocatorI4CardEEE37select_on_container_copy_constructionB7v160006IS3_vvEES3_RKS3_, symObjAddr: 0x1350, symBinAddr: 0x10000554C, symSize: 0x10 }
  - { offsetInCU: 0xE82F, offset: 0xE82F, size: 0x8, addend: 0x0, symName: __ZNKSt3__16vectorI4CardNS_9allocatorIS1_EEE7__allocB7v160006Ev, symObjAddr: 0x1360, symBinAddr: 0x10000555C, symSize: 0x28 }
  - { offsetInCU: 0xE859, offset: 0xE859, size: 0x8, addend: 0x0, symName: __ZNSt3__117__compressed_pairIP4CardNS_9allocatorIS1_EEEC1B7v160006IDnS4_EEOT_OT0_, symObjAddr: 0x1388, symBinAddr: 0x100005584, symSize: 0x3C }
  - { offsetInCU: 0xE8B0, offset: 0xE8B0, size: 0x8, addend: 0x0, symName: __ZNSt3__16vectorI4CardNS_9allocatorIS1_EEE11__vallocateB7v160006Em, symObjAddr: 0x1404, symBinAddr: 0x100005600, symSize: 0xB4 }
  - { offsetInCU: 0xE8F2, offset: 0xE8F2, size: 0x8, addend: 0x0, symName: __ZNSt3__16vectorI4CardNS_9allocatorIS1_EEE18__construct_at_endIPS1_Li0EEEvT_S7_m, symObjAddr: 0x14B8, symBinAddr: 0x1000056B4, symSize: 0x94 }
  - { offsetInCU: 0xE964, offset: 0xE964, size: 0x8, addend: 0x0, symName: __ZNSt3__128__exception_guard_exceptionsINS_6vectorI4CardNS_9allocatorIS2_EEE16__destroy_vectorEE10__completeB7v160006Ev, symObjAddr: 0x154C, symBinAddr: 0x100005748, symSize: 0x1C }
  - { offsetInCU: 0xE989, offset: 0xE989, size: 0x8, addend: 0x0, symName: __ZNSt3__128__exception_guard_exceptionsINS_6vectorI4CardNS_9allocatorIS2_EEE16__destroy_vectorEED1B7v160006Ev, symObjAddr: 0x1568, symBinAddr: 0x100005764, symSize: 0x2C }
  - { offsetInCU: 0xE9B2, offset: 0xE9B2, size: 0x8, addend: 0x0, symName: __ZNKSt3__117__compressed_pairIP4CardNS_9allocatorIS1_EEE6secondB7v160006Ev, symObjAddr: 0x1594, symBinAddr: 0x100005790, symSize: 0x24 }
  - { offsetInCU: 0xE9D7, offset: 0xE9D7, size: 0x8, addend: 0x0, symName: __ZNKSt3__122__compressed_pair_elemINS_9allocatorI4CardEELi1ELb1EE5__getB7v160006Ev, symObjAddr: 0x15B8, symBinAddr: 0x1000057B4, symSize: 0x14 }
  - { offsetInCU: 0xE9FC, offset: 0xE9FC, size: 0x8, addend: 0x0, symName: __ZNSt3__117__compressed_pairIP4CardNS_9allocatorIS1_EEEC2B7v160006IDnS4_EEOT_OT0_, symObjAddr: 0x15CC, symBinAddr: 0x1000057C8, symSize: 0x44 }
  - { offsetInCU: 0xEA53, offset: 0xEA53, size: 0x8, addend: 0x0, symName: __ZNSt3__122__compressed_pair_elemINS_9allocatorI4CardEELi1ELb1EEC2B7v160006IS3_vEEOT_, symObjAddr: 0x1610, symBinAddr: 0x10000580C, symSize: 0x18 }
  - { offsetInCU: 0xEA94, offset: 0xEA94, size: 0x8, addend: 0x0, symName: __ZNSt3__128__exception_guard_exceptionsINS_6vectorI4CardNS_9allocatorIS2_EEE16__destroy_vectorEEC1B7v160006ES6_, symObjAddr: 0x1628, symBinAddr: 0x100005824, symSize: 0x34 }
  - { offsetInCU: 0xEACB, offset: 0xEACB, size: 0x8, addend: 0x0, symName: __ZNSt3__128__exception_guard_exceptionsINS_6vectorI4CardNS_9allocatorIS2_EEE16__destroy_vectorEEC2B7v160006ES6_, symObjAddr: 0x165C, symBinAddr: 0x100005858, symSize: 0x24 }
  - { offsetInCU: 0xEB01, offset: 0xEB01, size: 0x8, addend: 0x0, symName: __ZNKSt3__16vectorI4CardNS_9allocatorIS1_EEE8max_sizeEv, symObjAddr: 0x1680, symBinAddr: 0x10000587C, symSize: 0x74 }
  - { offsetInCU: 0xEB28, offset: 0xEB28, size: 0x8, addend: 0x0, symName: __ZNKSt3__16vectorI4CardNS_9allocatorIS1_EEE20__throw_length_errorB7v160006Ev, symObjAddr: 0x16F4, symBinAddr: 0x1000058F0, symSize: 0x1C }
  - { offsetInCU: 0xEB4D, offset: 0xEB4D, size: 0x8, addend: 0x0, symName: __ZNSt3__16vectorI4CardNS_9allocatorIS1_EEE9__end_capB7v160006Ev, symObjAddr: 0x1750, symBinAddr: 0x10000594C, symSize: 0x28 }
  - { offsetInCU: 0xEB72, offset: 0xEB72, size: 0x8, addend: 0x0, symName: __ZNKSt3__16vectorI4CardNS_9allocatorIS1_EEE14__annotate_newB7v160006Em, symObjAddr: 0x1778, symBinAddr: 0x100005974, symSize: 0xC8 }
  - { offsetInCU: 0xEBA6, offset: 0xEBA6, size: 0x8, addend: 0x0, symName: __ZNSt3__116allocator_traitsINS_9allocatorI4CardEEE8max_sizeB7v160006IS3_vEEmRKS3_, symObjAddr: 0x186C, symBinAddr: 0x100005A68, symSize: 0x24 }
  - { offsetInCU: 0xEBD4, offset: 0xEBD4, size: 0x8, addend: 0x0, symName: __ZNSt3__114numeric_limitsIlE3maxB7v160006Ev, symObjAddr: 0x1890, symBinAddr: 0x100005A8C, symSize: 0x14 }
  - { offsetInCU: 0xEBFC, offset: 0xEBFC, size: 0x8, addend: 0x0, symName: __ZNKSt3__16__lessImmEclB7v160006ERKmS3_, symObjAddr: 0x18F8, symBinAddr: 0x100005AF4, symSize: 0x34 }
  - { offsetInCU: 0xEC3D, offset: 0xEC3D, size: 0x8, addend: 0x0, symName: __ZNKSt3__19allocatorI4CardE8max_sizeB7v160006Ev, symObjAddr: 0x192C, symBinAddr: 0x100005B28, symSize: 0x18 }
  - { offsetInCU: 0xEC62, offset: 0xEC62, size: 0x8, addend: 0x0, symName: __ZNSt3__123__libcpp_numeric_limitsIlLb1EE3maxB7v160006Ev, symObjAddr: 0x1944, symBinAddr: 0x100005B40, symSize: 0x8 }
  - { offsetInCU: 0xEC76, offset: 0xEC76, size: 0x8, addend: 0x0, symName: __ZNSt12length_errorC1B7v160006EPKc, symObjAddr: 0x19B0, symBinAddr: 0x100005BAC, symSize: 0x34 }
  - { offsetInCU: 0xECAD, offset: 0xECAD, size: 0x8, addend: 0x0, symName: __ZNSt12length_errorC2B7v160006EPKc, symObjAddr: 0x19E4, symBinAddr: 0x100005BE0, symSize: 0x4C }
  - { offsetInCU: 0xECE4, offset: 0xECE4, size: 0x8, addend: 0x0, symName: __ZNSt3__19allocatorI4CardE8allocateB7v160006Em, symObjAddr: 0x1A30, symBinAddr: 0x100005C2C, symSize: 0x8C }
  - { offsetInCU: 0xED17, offset: 0xED17, size: 0x8, addend: 0x0, symName: __ZNSt3__117__compressed_pairIP4CardNS_9allocatorIS1_EEE5firstB7v160006Ev, symObjAddr: 0x1B3C, symBinAddr: 0x100005D38, symSize: 0x24 }
  - { offsetInCU: 0xED3C, offset: 0xED3C, size: 0x8, addend: 0x0, symName: __ZNSt3__122__compressed_pair_elemIP4CardLi0ELb0EE5__getB7v160006Ev, symObjAddr: 0x1B60, symBinAddr: 0x100005D5C, symSize: 0x14 }
  - { offsetInCU: 0xED7A, offset: 0xED7A, size: 0x8, addend: 0x0, symName: __ZNSt3__16vectorI4CardNS_9allocatorIS1_EEE21_ConstructTransactionC1B7v160006ERS4_m, symObjAddr: 0x1B74, symBinAddr: 0x100005D70, symSize: 0x3C }
  - { offsetInCU: 0xEDC1, offset: 0xEDC1, size: 0x8, addend: 0x0, symName: __ZNSt3__16vectorI4CardNS_9allocatorIS1_EEE21_ConstructTransactionD1B7v160006Ev, symObjAddr: 0x1CAC, symBinAddr: 0x100005EA8, symSize: 0x2C }
  - { offsetInCU: 0xEDEA, offset: 0xEDEA, size: 0x8, addend: 0x0, symName: __ZNSt3__16vectorI4CardNS_9allocatorIS1_EEE21_ConstructTransactionC2B7v160006ERS4_m, symObjAddr: 0x1CD8, symBinAddr: 0x100005ED4, symSize: 0x4C }
  - { offsetInCU: 0xEE31, offset: 0xEE31, size: 0x8, addend: 0x0, symName: __ZNSt3__129_AllocatorDestroyRangeReverseINS_9allocatorI4CardEEPS2_EC1B7v160006ERS3_RS4_S7_, symObjAddr: 0x1D70, symBinAddr: 0x100005F6C, symSize: 0x44 }
  - { offsetInCU: 0xEE87, offset: 0xEE87, size: 0x8, addend: 0x0, symName: __ZNSt3__116allocator_traitsINS_9allocatorI4CardEEE9constructB7v160006IS2_JRS2_EvEEvRS3_PT_DpOT0_, symObjAddr: 0x1DB4, symBinAddr: 0x100005FB0, symSize: 0x34 }
  - { offsetInCU: 0xEEDE, offset: 0xEEDE, size: 0x8, addend: 0x0, symName: __ZNSt3__128__exception_guard_exceptionsINS_29_AllocatorDestroyRangeReverseINS_9allocatorI4CardEEPS3_EEE10__completeB7v160006Ev, symObjAddr: 0x1DE8, symBinAddr: 0x100005FE4, symSize: 0x1C }
  - { offsetInCU: 0xEF03, offset: 0xEF03, size: 0x8, addend: 0x0, symName: __ZNSt3__128__exception_guard_exceptionsINS_29_AllocatorDestroyRangeReverseINS_9allocatorI4CardEEPS3_EEED1B7v160006Ev, symObjAddr: 0x1E04, symBinAddr: 0x100006000, symSize: 0x2C }
  - { offsetInCU: 0xEF2C, offset: 0xEF2C, size: 0x8, addend: 0x0, symName: __ZNSt3__128__exception_guard_exceptionsINS_29_AllocatorDestroyRangeReverseINS_9allocatorI4CardEEPS3_EEEC1B7v160006ES6_, symObjAddr: 0x1E30, symBinAddr: 0x10000602C, symSize: 0x34 }
  - { offsetInCU: 0xEF64, offset: 0xEF64, size: 0x8, addend: 0x0, symName: __ZNSt3__128__exception_guard_exceptionsINS_29_AllocatorDestroyRangeReverseINS_9allocatorI4CardEEPS3_EEEC2B7v160006ES6_, symObjAddr: 0x1E64, symBinAddr: 0x100006060, symSize: 0x30 }
  - { offsetInCU: 0xEF9C, offset: 0xEF9C, size: 0x8, addend: 0x0, symName: __ZNSt3__129_AllocatorDestroyRangeReverseINS_9allocatorI4CardEEPS2_EC2B7v160006ERS3_RS4_S7_, symObjAddr: 0x1E94, symBinAddr: 0x100006090, symSize: 0x38 }
  - { offsetInCU: 0xEFF2, offset: 0xEFF2, size: 0x8, addend: 0x0, symName: __ZNSt3__19allocatorI4CardE9constructB7v160006IS1_JRS1_EEEvPT_DpOT0_, symObjAddr: 0x1ECC, symBinAddr: 0x1000060C8, symSize: 0x30 }
  - { offsetInCU: 0xF047, offset: 0xF047, size: 0x8, addend: 0x0, symName: __ZNSt3__128__exception_guard_exceptionsINS_29_AllocatorDestroyRangeReverseINS_9allocatorI4CardEEPS3_EEED2B7v160006Ev, symObjAddr: 0x1EFC, symBinAddr: 0x1000060F8, symSize: 0x48 }
  - { offsetInCU: 0xF070, offset: 0xF070, size: 0x8, addend: 0x0, symName: __ZNKSt3__129_AllocatorDestroyRangeReverseINS_9allocatorI4CardEEPS2_EclB7v160006Ev, symObjAddr: 0x1F44, symBinAddr: 0x100006140, symSize: 0x68 }
  - { offsetInCU: 0xF095, offset: 0xF095, size: 0x8, addend: 0x0, symName: __ZNSt3__116reverse_iteratorIP4CardEC1B7v160006ES2_, symObjAddr: 0x201C, symBinAddr: 0x100006218, symSize: 0x34 }
  - { offsetInCU: 0xF0CC, offset: 0xF0CC, size: 0x8, addend: 0x0, symName: __ZNSt3__116reverse_iteratorIP4CardEppB7v160006Ev, symObjAddr: 0x20BC, symBinAddr: 0x1000062B8, symSize: 0x20 }
  - { offsetInCU: 0xF0F1, offset: 0xF0F1, size: 0x8, addend: 0x0, symName: __ZNKSt3__116reverse_iteratorIP4CardE4baseB7v160006Ev, symObjAddr: 0x20DC, symBinAddr: 0x1000062D8, symSize: 0x18 }
  - { offsetInCU: 0xF11B, offset: 0xF11B, size: 0x8, addend: 0x0, symName: __ZNSt3__119__to_address_helperINS_16reverse_iteratorIP4CardEEvE6__callB7v160006ERKS4_, symObjAddr: 0x20F4, symBinAddr: 0x1000062F0, symSize: 0x4C }
  - { offsetInCU: 0xF13E, offset: 0xF13E, size: 0x8, addend: 0x0, symName: __ZNKSt3__116reverse_iteratorIP4CardEptB7v160006Ev, symObjAddr: 0x2140, symBinAddr: 0x10000633C, symSize: 0x24 }
  - { offsetInCU: 0xF163, offset: 0xF163, size: 0x8, addend: 0x0, symName: __ZNKSt3__116reverse_iteratorIP4CardEdeB7v160006Ev, symObjAddr: 0x2164, symBinAddr: 0x100006360, symSize: 0x28 }
  - { offsetInCU: 0xF196, offset: 0xF196, size: 0x8, addend: 0x0, symName: __ZNSt3__116reverse_iteratorIP4CardEC2B7v160006ES2_, symObjAddr: 0x218C, symBinAddr: 0x100006388, symSize: 0x28 }
  - { offsetInCU: 0xF1CD, offset: 0xF1CD, size: 0x8, addend: 0x0, symName: __ZNSt3__16vectorI4CardNS_9allocatorIS1_EEE21_ConstructTransactionD2B7v160006Ev, symObjAddr: 0x21B4, symBinAddr: 0x1000063B0, symSize: 0x20 }
  - { offsetInCU: 0xF1F6, offset: 0xF1F6, size: 0x8, addend: 0x0, symName: __ZNSt3__128__exception_guard_exceptionsINS_6vectorI4CardNS_9allocatorIS2_EEE16__destroy_vectorEED2B7v160006Ev, symObjAddr: 0x21D4, symBinAddr: 0x1000063D0, symSize: 0x48 }
  - { offsetInCU: 0xF21F, offset: 0xF21F, size: 0x8, addend: 0x0, symName: __ZNSt3__117__compressed_pairIP6PlayerNS_9allocatorIS1_EEE6secondB7v160006Ev, symObjAddr: 0x221C, symBinAddr: 0x100006418, symSize: 0x24 }
  - { offsetInCU: 0xF244, offset: 0xF244, size: 0x8, addend: 0x0, symName: __ZNSt3__122__compressed_pair_elemINS_9allocatorI6PlayerEELi1ELb1EE5__getB7v160006Ev, symObjAddr: 0x2240, symBinAddr: 0x10000643C, symSize: 0x14 }
  - { offsetInCU: 0xF269, offset: 0xF269, size: 0x8, addend: 0x0, symName: __ZNSt3__16vectorI6PlayerNS_9allocatorIS1_EEE21_ConstructTransactionD2B7v160006Ev, symObjAddr: 0x2254, symBinAddr: 0x100006450, symSize: 0x20 }
  - { offsetInCU: 0xF291, offset: 0xF291, size: 0x8, addend: 0x0, symName: __ZNKSt3__16vectorI6PlayerNS_9allocatorIS1_EEE11__recommendB7v160006Em, symObjAddr: 0x2274, symBinAddr: 0x100006470, symSize: 0xB4 }
  - { offsetInCU: 0xF2E5, offset: 0xF2E5, size: 0x8, addend: 0x0, symName: __ZNKSt3__16vectorI6PlayerNS_9allocatorIS1_EEE4sizeB7v160006Ev, symObjAddr: 0x2328, symBinAddr: 0x100006524, symSize: 0x28 }
  - { offsetInCU: 0xF30A, offset: 0xF30A, size: 0x8, addend: 0x0, symName: __ZNSt3__114__split_bufferI6PlayerRNS_9allocatorIS1_EEEC1EmmS4_, symObjAddr: 0x2350, symBinAddr: 0x10000654C, symSize: 0x44 }
  - { offsetInCU: 0xF35F, offset: 0xF35F, size: 0x8, addend: 0x0, symName: __ZNSt3__114__split_bufferI6PlayerRNS_9allocatorIS1_EEED1Ev, symObjAddr: 0x24AC, symBinAddr: 0x1000066A8, symSize: 0x2C }
  - { offsetInCU: 0xF389, offset: 0xF389, size: 0x8, addend: 0x0, symName: __ZNKSt3__16vectorI6PlayerNS_9allocatorIS1_EEE8max_sizeEv, symObjAddr: 0x24D8, symBinAddr: 0x1000066D4, symSize: 0x74 }
  - { offsetInCU: 0xF3B0, offset: 0xF3B0, size: 0x8, addend: 0x0, symName: __ZNKSt3__16vectorI6PlayerNS_9allocatorIS1_EEE20__throw_length_errorB7v160006Ev, symObjAddr: 0x254C, symBinAddr: 0x100006748, symSize: 0x1C }
  - { offsetInCU: 0xF3D5, offset: 0xF3D5, size: 0x8, addend: 0x0, symName: __ZNKSt3__16vectorI6PlayerNS_9allocatorIS1_EEE8capacityB7v160006Ev, symObjAddr: 0x2568, symBinAddr: 0x100006764, symSize: 0x40 }
  - { offsetInCU: 0xF404, offset: 0xF404, size: 0x8, addend: 0x0, symName: __ZNSt3__116allocator_traitsINS_9allocatorI6PlayerEEE8max_sizeB7v160006IS3_vEEmRKS3_, symObjAddr: 0x25D4, symBinAddr: 0x1000067D0, symSize: 0x24 }
  - { offsetInCU: 0xF432, offset: 0xF432, size: 0x8, addend: 0x0, symName: __ZNKSt3__16vectorI6PlayerNS_9allocatorIS1_EEE7__allocB7v160006Ev, symObjAddr: 0x25F8, symBinAddr: 0x1000067F4, symSize: 0x28 }
  - { offsetInCU: 0xF457, offset: 0xF457, size: 0x8, addend: 0x0, symName: __ZNKSt3__19allocatorI6PlayerE8max_sizeB7v160006Ev, symObjAddr: 0x2620, symBinAddr: 0x10000681C, symSize: 0x18 }
  - { offsetInCU: 0xF47C, offset: 0xF47C, size: 0x8, addend: 0x0, symName: __ZNKSt3__117__compressed_pairIP6PlayerNS_9allocatorIS1_EEE6secondB7v160006Ev, symObjAddr: 0x2638, symBinAddr: 0x100006834, symSize: 0x24 }
  - { offsetInCU: 0xF4A1, offset: 0xF4A1, size: 0x8, addend: 0x0, symName: __ZNKSt3__122__compressed_pair_elemINS_9allocatorI6PlayerEELi1ELb1EE5__getB7v160006Ev, symObjAddr: 0x265C, symBinAddr: 0x100006858, symSize: 0x14 }
  - { offsetInCU: 0xF4C6, offset: 0xF4C6, size: 0x8, addend: 0x0, symName: __ZNKSt3__16vectorI6PlayerNS_9allocatorIS1_EEE9__end_capB7v160006Ev, symObjAddr: 0x2670, symBinAddr: 0x10000686C, symSize: 0x28 }
  - { offsetInCU: 0xF4EB, offset: 0xF4EB, size: 0x8, addend: 0x0, symName: __ZNKSt3__117__compressed_pairIP6PlayerNS_9allocatorIS1_EEE5firstB7v160006Ev, symObjAddr: 0x2698, symBinAddr: 0x100006894, symSize: 0x24 }
  - { offsetInCU: 0xF510, offset: 0xF510, size: 0x8, addend: 0x0, symName: __ZNKSt3__122__compressed_pair_elemIP6PlayerLi0ELb0EE5__getB7v160006Ev, symObjAddr: 0x26BC, symBinAddr: 0x1000068B8, symSize: 0x14 }
  - { offsetInCU: 0xF535, offset: 0xF535, size: 0x8, addend: 0x0, symName: __ZNSt3__114__split_bufferI6PlayerRNS_9allocatorIS1_EEEC2EmmS4_, symObjAddr: 0x2724, symBinAddr: 0x100006920, symSize: 0xE0 }
  - { offsetInCU: 0xF5A8, offset: 0xF5A8, size: 0x8, addend: 0x0, symName: __ZNSt3__117__compressed_pairIP6PlayerRNS_9allocatorIS1_EEEC1B7v160006IDnS5_EEOT_OT0_, symObjAddr: 0x2804, symBinAddr: 0x100006A00, symSize: 0x3C }
  - { offsetInCU: 0xF5FF, offset: 0xF5FF, size: 0x8, addend: 0x0, symName: __ZNSt3__114__split_bufferI6PlayerRNS_9allocatorIS1_EEE7__allocB7v160006Ev, symObjAddr: 0x2880, symBinAddr: 0x100006A7C, symSize: 0x28 }
  - { offsetInCU: 0xF624, offset: 0xF624, size: 0x8, addend: 0x0, symName: __ZNSt3__114__split_bufferI6PlayerRNS_9allocatorIS1_EEE9__end_capB7v160006Ev, symObjAddr: 0x28A8, symBinAddr: 0x100006AA4, symSize: 0x28 }
  - { offsetInCU: 0xF649, offset: 0xF649, size: 0x8, addend: 0x0, symName: __ZNSt3__117__compressed_pairIP6PlayerRNS_9allocatorIS1_EEEC2B7v160006IDnS5_EEOT_OT0_, symObjAddr: 0x28D0, symBinAddr: 0x100006ACC, symSize: 0x48 }
  - { offsetInCU: 0xF6A0, offset: 0xF6A0, size: 0x8, addend: 0x0, symName: __ZNSt3__122__compressed_pair_elemIRNS_9allocatorI6PlayerEELi1ELb0EEC2B7v160006IS4_vEEOT_, symObjAddr: 0x2918, symBinAddr: 0x100006B14, symSize: 0x20 }
  - { offsetInCU: 0xF6E1, offset: 0xF6E1, size: 0x8, addend: 0x0, symName: __ZNSt3__19allocatorI6PlayerE8allocateB7v160006Em, symObjAddr: 0x2938, symBinAddr: 0x100006B34, symSize: 0x8C }
  - { offsetInCU: 0xF714, offset: 0xF714, size: 0x8, addend: 0x0, symName: __ZNSt3__117__compressed_pairIP6PlayerRNS_9allocatorIS1_EEE6secondB7v160006Ev, symObjAddr: 0x29C4, symBinAddr: 0x100006BC0, symSize: 0x28 }
  - { offsetInCU: 0xF739, offset: 0xF739, size: 0x8, addend: 0x0, symName: __ZNSt3__122__compressed_pair_elemIRNS_9allocatorI6PlayerEELi1ELb0EE5__getB7v160006Ev, symObjAddr: 0x29EC, symBinAddr: 0x100006BE8, symSize: 0x18 }
  - { offsetInCU: 0xF75E, offset: 0xF75E, size: 0x8, addend: 0x0, symName: __ZNSt3__117__compressed_pairIP6PlayerRNS_9allocatorIS1_EEE5firstB7v160006Ev, symObjAddr: 0x2A04, symBinAddr: 0x100006C00, symSize: 0x24 }
  - { offsetInCU: 0xF783, offset: 0xF783, size: 0x8, addend: 0x0, symName: __ZNKSt3__16vectorI6PlayerNS_9allocatorIS1_EEE17__annotate_deleteB7v160006Ev, symObjAddr: 0x2A28, symBinAddr: 0x100006C24, symSize: 0xD4 }
  - { offsetInCU: 0xF7A8, offset: 0xF7A8, size: 0x8, addend: 0x0, symName: __ZNSt3__116reverse_iteratorIP6PlayerEC1B7v160006ES2_, symObjAddr: 0x2C30, symBinAddr: 0x100006E2C, symSize: 0x34 }
  - { offsetInCU: 0xF7DF, offset: 0xF7DF, size: 0x8, addend: 0x0, symName: __ZNKSt3__116reverse_iteratorIP6PlayerE4baseB7v160006Ev, symObjAddr: 0x2C64, symBinAddr: 0x100006E60, symSize: 0x18 }
  - { offsetInCU: 0xF804, offset: 0xF804, size: 0x8, addend: 0x0, symName: __ZNKSt3__16vectorI6PlayerNS_9allocatorIS1_EEE14__annotate_newB7v160006Em, symObjAddr: 0x2CB8, symBinAddr: 0x100006EB4, symSize: 0xC8 }
  - { offsetInCU: 0xF838, offset: 0xF838, size: 0x8, addend: 0x0, symName: __ZNKSt3__16vectorI6PlayerNS_9allocatorIS1_EEE31__annotate_contiguous_containerB7v160006EPKvS6_S6_S6_, symObjAddr: 0x2D90, symBinAddr: 0x100006F8C, symSize: 0x20 }
  - { offsetInCU: 0xF889, offset: 0xF889, size: 0x8, addend: 0x0, symName: __ZNKSt3__16vectorI6PlayerNS_9allocatorIS1_EEE4dataB7v160006Ev, symObjAddr: 0x2DB0, symBinAddr: 0x100006FAC, symSize: 0x28 }
  - { offsetInCU: 0xF8AE, offset: 0xF8AE, size: 0x8, addend: 0x0, symName: __ZNSt3__129_AllocatorDestroyRangeReverseINS_9allocatorI6PlayerEENS_16reverse_iteratorIPS2_EEEC1B7v160006ERS3_RS6_S9_, symObjAddr: 0x2E24, symBinAddr: 0x100007020, symSize: 0x44 }
  - { offsetInCU: 0xF904, offset: 0xF904, size: 0x8, addend: 0x0, symName: __ZNSt3__116allocator_traitsINS_9allocatorI6PlayerEEE9constructB7v160006IS2_JRKS2_EvEEvRS3_PT_DpOT0_, symObjAddr: 0x2EB0, symBinAddr: 0x1000070AC, symSize: 0x34 }
  - { offsetInCU: 0xF95B, offset: 0xF95B, size: 0x8, addend: 0x0, symName: __ZNKSt3__116reverse_iteratorIP6PlayerEdeB7v160006Ev, symObjAddr: 0x2F08, symBinAddr: 0x100007104, symSize: 0x28 }
  - { offsetInCU: 0xF98E, offset: 0xF98E, size: 0x8, addend: 0x0, symName: __ZNSt3__116reverse_iteratorIP6PlayerEppB7v160006Ev, symObjAddr: 0x2F30, symBinAddr: 0x10000712C, symSize: 0x20 }
  - { offsetInCU: 0xF9B3, offset: 0xF9B3, size: 0x8, addend: 0x0, symName: __ZNSt3__128__exception_guard_exceptionsINS_29_AllocatorDestroyRangeReverseINS_9allocatorI6PlayerEENS_16reverse_iteratorIPS3_EEEEE10__completeB7v160006Ev, symObjAddr: 0x2F50, symBinAddr: 0x10000714C, symSize: 0x1C }
  - { offsetInCU: 0xF9D8, offset: 0xF9D8, size: 0x8, addend: 0x0, symName: __ZNSt3__128__exception_guard_exceptionsINS_29_AllocatorDestroyRangeReverseINS_9allocatorI6PlayerEENS_16reverse_iteratorIPS3_EEEEED1B7v160006Ev, symObjAddr: 0x2F6C, symBinAddr: 0x100007168, symSize: 0x2C }
  - { offsetInCU: 0xFA01, offset: 0xFA01, size: 0x8, addend: 0x0, symName: __ZNSt3__128__exception_guard_exceptionsINS_29_AllocatorDestroyRangeReverseINS_9allocatorI6PlayerEENS_16reverse_iteratorIPS3_EEEEEC1B7v160006ES8_, symObjAddr: 0x2F98, symBinAddr: 0x100007194, symSize: 0x34 }
  - { offsetInCU: 0xFA39, offset: 0xFA39, size: 0x8, addend: 0x0, symName: __ZNSt3__128__exception_guard_exceptionsINS_29_AllocatorDestroyRangeReverseINS_9allocatorI6PlayerEENS_16reverse_iteratorIPS3_EEEEEC2B7v160006ES8_, symObjAddr: 0x2FCC, symBinAddr: 0x1000071C8, symSize: 0x30 }
  - { offsetInCU: 0xFA71, offset: 0xFA71, size: 0x8, addend: 0x0, symName: __ZNSt3__129_AllocatorDestroyRangeReverseINS_9allocatorI6PlayerEENS_16reverse_iteratorIPS2_EEEC2B7v160006ERS3_RS6_S9_, symObjAddr: 0x2FFC, symBinAddr: 0x1000071F8, symSize: 0x38 }
  - { offsetInCU: 0xFAC7, offset: 0xFAC7, size: 0x8, addend: 0x0, symName: __ZNSt3__19allocatorI6PlayerE9constructB7v160006IS1_JRKS1_EEEvPT_DpOT0_, symObjAddr: 0x3034, symBinAddr: 0x100007230, symSize: 0x30 }
  - { offsetInCU: 0xFB21, offset: 0xFB21, size: 0x8, addend: 0x0, symName: __ZNSt3__119__to_address_helperINS_16reverse_iteratorIP6PlayerEEvE6__callB7v160006ERKS4_, symObjAddr: 0x3064, symBinAddr: 0x100007260, symSize: 0x4C }
  - { offsetInCU: 0xFB44, offset: 0xFB44, size: 0x8, addend: 0x0, symName: __ZNKSt3__116reverse_iteratorIP6PlayerEptB7v160006Ev, symObjAddr: 0x30B0, symBinAddr: 0x1000072AC, symSize: 0x24 }
  - { offsetInCU: 0xFB69, offset: 0xFB69, size: 0x8, addend: 0x0, symName: __ZNSt3__128__exception_guard_exceptionsINS_29_AllocatorDestroyRangeReverseINS_9allocatorI6PlayerEENS_16reverse_iteratorIPS3_EEEEED2B7v160006Ev, symObjAddr: 0x30D4, symBinAddr: 0x1000072D0, symSize: 0x48 }
  - { offsetInCU: 0xFB92, offset: 0xFB92, size: 0x8, addend: 0x0, symName: __ZNKSt3__129_AllocatorDestroyRangeReverseINS_9allocatorI6PlayerEENS_16reverse_iteratorIPS2_EEEclB7v160006Ev, symObjAddr: 0x311C, symBinAddr: 0x100007318, symSize: 0xB4 }
  - { offsetInCU: 0xFBB8, offset: 0xFBB8, size: 0x8, addend: 0x0, symName: __ZNSt3__116reverse_iteratorINS0_IP6PlayerEEEC1B7v160006ES3_, symObjAddr: 0x3240, symBinAddr: 0x10000743C, symSize: 0x3C }
  - { offsetInCU: 0xFBEF, offset: 0xFBEF, size: 0x8, addend: 0x0, symName: __ZNSt3__116allocator_traitsINS_9allocatorI6PlayerEEE7destroyB7v160006IS2_vEEvRS3_PT_, symObjAddr: 0x32DC, symBinAddr: 0x1000074D8, symSize: 0x2C }
  - { offsetInCU: 0xFC2C, offset: 0xFC2C, size: 0x8, addend: 0x0, symName: __ZNSt3__116reverse_iteratorINS0_IP6PlayerEEEppB7v160006Ev, symObjAddr: 0x332C, symBinAddr: 0x100007528, symSize: 0x30 }
  - { offsetInCU: 0xFC51, offset: 0xFC51, size: 0x8, addend: 0x0, symName: __ZNKSt3__116reverse_iteratorINS0_IP6PlayerEEE4baseB7v160006Ev, symObjAddr: 0x335C, symBinAddr: 0x100007558, symSize: 0x24 }
  - { offsetInCU: 0xFC76, offset: 0xFC76, size: 0x8, addend: 0x0, symName: __ZNSt3__19allocatorI6PlayerE7destroyB7v160006EPS1_, symObjAddr: 0x3380, symBinAddr: 0x10000757C, symSize: 0x28 }
  - { offsetInCU: 0xFCAE, offset: 0xFCAE, size: 0x8, addend: 0x0, symName: __ZNSt3__119__to_address_helperINS_16reverse_iteratorINS1_IP6PlayerEEEEvE6__callB7v160006ERKS5_, symObjAddr: 0x33A8, symBinAddr: 0x1000075A4, symSize: 0x4C }
  - { offsetInCU: 0xFCD1, offset: 0xFCD1, size: 0x8, addend: 0x0, symName: __ZNKSt3__116reverse_iteratorINS0_IP6PlayerEEEptB7v160006Ev, symObjAddr: 0x33F4, symBinAddr: 0x1000075F0, symSize: 0x24 }
  - { offsetInCU: 0xFCF6, offset: 0xFCF6, size: 0x8, addend: 0x0, symName: __ZNKSt3__116reverse_iteratorINS0_IP6PlayerEEEdeB7v160006Ev, symObjAddr: 0x3418, symBinAddr: 0x100007614, symSize: 0x34 }
  - { offsetInCU: 0xFD29, offset: 0xFD29, size: 0x8, addend: 0x0, symName: __ZNSt3__116reverse_iteratorIP6PlayerEmmB7v160006Ev, symObjAddr: 0x344C, symBinAddr: 0x100007648, symSize: 0x20 }
  - { offsetInCU: 0xFD4E, offset: 0xFD4E, size: 0x8, addend: 0x0, symName: __ZNSt3__116reverse_iteratorINS0_IP6PlayerEEEC2B7v160006ES3_, symObjAddr: 0x346C, symBinAddr: 0x100007668, symSize: 0x2C }
  - { offsetInCU: 0xFD85, offset: 0xFD85, size: 0x8, addend: 0x0, symName: __ZNSt3__116reverse_iteratorIP6PlayerEC2B7v160006ES2_, symObjAddr: 0x3498, symBinAddr: 0x100007694, symSize: 0x28 }
  - { offsetInCU: 0xFDBC, offset: 0xFDBC, size: 0x8, addend: 0x0, symName: __ZNSt3__114__split_bufferI6PlayerRNS_9allocatorIS1_EEED2Ev, symObjAddr: 0x34C0, symBinAddr: 0x1000076BC, symSize: 0x80 }
  - { offsetInCU: 0xFDE7, offset: 0xFDE7, size: 0x8, addend: 0x0, symName: __ZNSt3__114__split_bufferI6PlayerRNS_9allocatorIS1_EEE5clearB7v160006Ev, symObjAddr: 0x3540, symBinAddr: 0x10000773C, symSize: 0x28 }
  - { offsetInCU: 0xFE0C, offset: 0xFE0C, size: 0x8, addend: 0x0, symName: __ZNSt3__116allocator_traitsINS_9allocatorI6PlayerEEE10deallocateB7v160006ERS3_PS2_m, symObjAddr: 0x3568, symBinAddr: 0x100007764, symSize: 0x34 }
  - { offsetInCU: 0xFE4E, offset: 0xFE4E, size: 0x8, addend: 0x0, symName: __ZNKSt3__114__split_bufferI6PlayerRNS_9allocatorIS1_EEE8capacityB7v160006Ev, symObjAddr: 0x359C, symBinAddr: 0x100007798, symSize: 0x40 }
  - { offsetInCU: 0xFE73, offset: 0xFE73, size: 0x8, addend: 0x0, symName: __ZNSt3__114__split_bufferI6PlayerRNS_9allocatorIS1_EEE17__destruct_at_endB7v160006EPS1_, symObjAddr: 0x35DC, symBinAddr: 0x1000077D8, symSize: 0x2C }
  - { offsetInCU: 0xFEA5, offset: 0xFEA5, size: 0x8, addend: 0x0, symName: __ZNSt3__114__split_bufferI6PlayerRNS_9allocatorIS1_EEE17__destruct_at_endB7v160006EPS1_NS_17integral_constantIbLb0EEE, symObjAddr: 0x3608, symBinAddr: 0x100007804, symSize: 0x94 }
  - { offsetInCU: 0xFEE5, offset: 0xFEE5, size: 0x8, addend: 0x0, symName: __ZNSt3__19allocatorI6PlayerE10deallocateB7v160006EPS1_m, symObjAddr: 0x369C, symBinAddr: 0x100007898, symSize: 0x74 }
  - { offsetInCU: 0xFF26, offset: 0xFF26, size: 0x8, addend: 0x0, symName: __ZNKSt3__114__split_bufferI6PlayerRNS_9allocatorIS1_EEE9__end_capB7v160006Ev, symObjAddr: 0x3710, symBinAddr: 0x10000790C, symSize: 0x28 }
  - { offsetInCU: 0xFF4B, offset: 0xFF4B, size: 0x8, addend: 0x0, symName: __ZNKSt3__117__compressed_pairIP6PlayerRNS_9allocatorIS1_EEE5firstB7v160006Ev, symObjAddr: 0x3738, symBinAddr: 0x100007934, symSize: 0x24 }
  - { offsetInCU: 0xFF70, offset: 0xFF70, size: 0x8, addend: 0x0, symName: __ZN6PlayerC2Ev, symObjAddr: 0x375C, symBinAddr: 0x100007958, symSize: 0x40 }
  - { offsetInCU: 0xFF99, offset: 0xFF99, size: 0x8, addend: 0x0, symName: __ZN6PlayerD2Ev, symObjAddr: 0x379C, symBinAddr: 0x100007998, symSize: 0x2C }
  - { offsetInCU: 0xFFC4, offset: 0xFFC4, size: 0x8, addend: 0x0, symName: __ZNSt3__113basic_ostreamIcNS_11char_traitsIcEEElsB7v160006EPFRS3_S4_E, symObjAddr: 0x37C8, symBinAddr: 0x1000079C4, symSize: 0x2C }
  - { offsetInCU: 0xFFF7, offset: 0xFFF7, size: 0x8, addend: 0x0, symName: __ZN4Game11ShuffleDeckEv, symObjAddr: 0x384C, symBinAddr: 0x100007A48, symSize: 0xD4 }
  - { offsetInCU: 0x10055, offset: 0x10055, size: 0x8, addend: 0x0, symName: __ZNSt3__16vectorI6PlayerNS_9allocatorIS1_EEE5beginB7v160006Ev, symObjAddr: 0x3920, symBinAddr: 0x100007B1C, symSize: 0x30 }
  - { offsetInCU: 0x1007B, offset: 0x1007B, size: 0x8, addend: 0x0, symName: __ZNSt3__16vectorI6PlayerNS_9allocatorIS1_EEE3endB7v160006Ev, symObjAddr: 0x3950, symBinAddr: 0x100007B4C, symSize: 0x30 }
  - { offsetInCU: 0x100A2, offset: 0x100A2, size: 0x8, addend: 0x0, symName: __ZNKSt3__111__wrap_iterIP6PlayerEdeB7v160006Ev, symObjAddr: 0x39B4, symBinAddr: 0x100007BB0, symSize: 0x18 }
  - { offsetInCU: 0x100C7, offset: 0x100C7, size: 0x8, addend: 0x0, symName: __ZNK6Player8IsActiveEv, symObjAddr: 0x39CC, symBinAddr: 0x100007BC8, symSize: 0x1C }
  - { offsetInCU: 0x100EC, offset: 0x100EC, size: 0x8, addend: 0x0, symName: __ZNSt3__16vectorI6PlayerNS_9allocatorIS1_EEEixB7v160006Em, symObjAddr: 0x39E8, symBinAddr: 0x100007BE4, symSize: 0x2C }
  - { offsetInCU: 0x10122, offset: 0x10122, size: 0x8, addend: 0x0, symName: __ZN6Player8PlaceBetEi, symObjAddr: 0x3A14, symBinAddr: 0x100007C10, symSize: 0x30 }
  - { offsetInCU: 0x10155, offset: 0x10155, size: 0x8, addend: 0x0, symName: __ZNSt3__111__wrap_iterIP6PlayerEppB7v160006Ev, symObjAddr: 0x3A44, symBinAddr: 0x100007C40, symSize: 0x20 }
  - { offsetInCU: 0x1017A, offset: 0x1017A, size: 0x8, addend: 0x0, symName: __ZN4Game16DealInitialCardsEv, symObjAddr: 0x3A64, symBinAddr: 0x100007C60, symSize: 0x140 }
  - { offsetInCU: 0x1020F, offset: 0x1020F, size: 0x8, addend: 0x0, symName: __ZN4Game13PlayerActionsEv, symObjAddr: 0x3BA4, symBinAddr: 0x100007DA0, symSize: 0x10 }
  - { offsetInCU: 0x10234, offset: 0x10234, size: 0x8, addend: 0x0, symName: __ZN4Game13DealerActionsEv, symObjAddr: 0x3BB4, symBinAddr: 0x100007DB0, symSize: 0x10 }
  - { offsetInCU: 0x10259, offset: 0x10259, size: 0x8, addend: 0x0, symName: __ZN4Game6PayoutEv, symObjAddr: 0x3BC4, symBinAddr: 0x100007DC0, symSize: 0x10 }
  - { offsetInCU: 0x1027D, offset: 0x1027D, size: 0x8, addend: 0x0, symName: __ZNKSt3__19basic_iosIcNS_11char_traitsIcEEE5widenB7v160006Ec, symObjAddr: 0x3BD4, symBinAddr: 0x100007DD0, symSize: 0x8C }
  - { offsetInCU: 0x102E5, offset: 0x102E5, size: 0x8, addend: 0x0, symName: __ZNKSt3__15ctypeIcE5widenB7v160006Ec, symObjAddr: 0x3C8C, symBinAddr: 0x100007E88, symSize: 0x38 }
  - { offsetInCU: 0x10319, offset: 0x10319, size: 0x8, addend: 0x0, symName: __ZNSt3__16vectorI4CardNS_9allocatorIS1_EEE5clearB7v160006Ev, symObjAddr: 0x3CC4, symBinAddr: 0x100007EC0, symSize: 0x68 }
  - { offsetInCU: 0x1034C, offset: 0x1034C, size: 0x8, addend: 0x0, symName: __ZNSt3__16vectorI4CardNS_9allocatorIS1_EEE9push_backB7v160006EOS1_, symObjAddr: 0x3D2C, symBinAddr: 0x100007F28, symSize: 0x6C }
  - { offsetInCU: 0x10382, offset: 0x10382, size: 0x8, addend: 0x0, symName: __ZN4CardC1ENS_4RankENS_4SuitE, symObjAddr: 0x3D98, symBinAddr: 0x100007F94, symSize: 0x3C }
  - { offsetInCU: 0x103C6, offset: 0x103C6, size: 0x8, addend: 0x0, symName: __ZNSt3__16vectorI4CardNS_9allocatorIS1_EEE5beginB7v160006Ev, symObjAddr: 0x3F40, symBinAddr: 0x10000813C, symSize: 0x30 }
  - { offsetInCU: 0x103EC, offset: 0x103EC, size: 0x8, addend: 0x0, symName: __ZNSt3__16vectorI4CardNS_9allocatorIS1_EEE3endB7v160006Ev, symObjAddr: 0x3F70, symBinAddr: 0x10000816C, symSize: 0x30 }
  - { offsetInCU: 0x10413, offset: 0x10413, size: 0x8, addend: 0x0, symName: __ZNKSt3__16vectorI4CardNS_9allocatorIS1_EEE17__annotate_shrinkB7v160006Em, symObjAddr: 0x3FA0, symBinAddr: 0x10000819C, symSize: 0xD0 }
  - { offsetInCU: 0x1044C, offset: 0x1044C, size: 0x8, addend: 0x0, symName: __ZNSt3__16vectorI4CardNS_9allocatorIS1_EEE22__construct_one_at_endB7v160006IJS1_EEEvDpOT_, symObjAddr: 0x4080, symBinAddr: 0x10000827C, symSize: 0x98 }
  - { offsetInCU: 0x10499, offset: 0x10499, size: 0x8, addend: 0x0, symName: __ZNSt3__16vectorI4CardNS_9allocatorIS1_EEE21__push_back_slow_pathIS1_EEvOT_, symObjAddr: 0x4118, symBinAddr: 0x100008314, symSize: 0xE0 }
  - { offsetInCU: 0x104F6, offset: 0x104F6, size: 0x8, addend: 0x0, symName: __ZNSt3__116allocator_traitsINS_9allocatorI4CardEEE9constructB7v160006IS2_JS2_EvEEvRS3_PT_DpOT0_, symObjAddr: 0x41F8, symBinAddr: 0x1000083F4, symSize: 0x34 }
  - { offsetInCU: 0x1054D, offset: 0x1054D, size: 0x8, addend: 0x0, symName: __ZNSt3__19allocatorI4CardE9constructB7v160006IS1_JS1_EEEvPT_DpOT0_, symObjAddr: 0x422C, symBinAddr: 0x100008428, symSize: 0x30 }
  - { offsetInCU: 0x105A1, offset: 0x105A1, size: 0x8, addend: 0x0, symName: __ZNKSt3__16vectorI4CardNS_9allocatorIS1_EEE11__recommendB7v160006Em, symObjAddr: 0x425C, symBinAddr: 0x100008458, symSize: 0xB4 }
  - { offsetInCU: 0x105F5, offset: 0x105F5, size: 0x8, addend: 0x0, symName: __ZNSt3__114__split_bufferI4CardRNS_9allocatorIS1_EEEC1EmmS4_, symObjAddr: 0x4310, symBinAddr: 0x10000850C, symSize: 0x44 }
  - { offsetInCU: 0x1064A, offset: 0x1064A, size: 0x8, addend: 0x0, symName: __ZNSt3__114__split_bufferI4CardRNS_9allocatorIS1_EEED1Ev, symObjAddr: 0x446C, symBinAddr: 0x100008668, symSize: 0x2C }
  - { offsetInCU: 0x10675, offset: 0x10675, size: 0x8, addend: 0x0, symName: __ZNSt3__114__split_bufferI4CardRNS_9allocatorIS1_EEEC2EmmS4_, symObjAddr: 0x4498, symBinAddr: 0x100008694, symSize: 0xE0 }
  - { offsetInCU: 0x106E8, offset: 0x106E8, size: 0x8, addend: 0x0, symName: __ZNSt3__117__compressed_pairIP4CardRNS_9allocatorIS1_EEEC1B7v160006IDnS5_EEOT_OT0_, symObjAddr: 0x4578, symBinAddr: 0x100008774, symSize: 0x3C }
  - { offsetInCU: 0x1073F, offset: 0x1073F, size: 0x8, addend: 0x0, symName: __ZNSt3__114__split_bufferI4CardRNS_9allocatorIS1_EEE7__allocB7v160006Ev, symObjAddr: 0x45B4, symBinAddr: 0x1000087B0, symSize: 0x28 }
  - { offsetInCU: 0x10764, offset: 0x10764, size: 0x8, addend: 0x0, symName: __ZNSt3__114__split_bufferI4CardRNS_9allocatorIS1_EEE9__end_capB7v160006Ev, symObjAddr: 0x45DC, symBinAddr: 0x1000087D8, symSize: 0x28 }
  - { offsetInCU: 0x10789, offset: 0x10789, size: 0x8, addend: 0x0, symName: __ZNSt3__117__compressed_pairIP4CardRNS_9allocatorIS1_EEEC2B7v160006IDnS5_EEOT_OT0_, symObjAddr: 0x4604, symBinAddr: 0x100008800, symSize: 0x48 }
  - { offsetInCU: 0x107E0, offset: 0x107E0, size: 0x8, addend: 0x0, symName: __ZNSt3__122__compressed_pair_elemIRNS_9allocatorI4CardEELi1ELb0EEC2B7v160006IS4_vEEOT_, symObjAddr: 0x464C, symBinAddr: 0x100008848, symSize: 0x20 }
  - { offsetInCU: 0x10821, offset: 0x10821, size: 0x8, addend: 0x0, symName: __ZNSt3__117__compressed_pairIP4CardRNS_9allocatorIS1_EEE6secondB7v160006Ev, symObjAddr: 0x466C, symBinAddr: 0x100008868, symSize: 0x28 }
  - { offsetInCU: 0x10846, offset: 0x10846, size: 0x8, addend: 0x0, symName: __ZNSt3__122__compressed_pair_elemIRNS_9allocatorI4CardEELi1ELb0EE5__getB7v160006Ev, symObjAddr: 0x4694, symBinAddr: 0x100008890, symSize: 0x18 }
  - { offsetInCU: 0x1086B, offset: 0x1086B, size: 0x8, addend: 0x0, symName: __ZNSt3__117__compressed_pairIP4CardRNS_9allocatorIS1_EEE5firstB7v160006Ev, symObjAddr: 0x46AC, symBinAddr: 0x1000088A8, symSize: 0x24 }
  - { offsetInCU: 0x108B3, offset: 0x108B3, size: 0x8, addend: 0x0, symName: __ZNKSt3__111__move_loopINS_17_ClassicAlgPolicyEEclB7v160006INS_16reverse_iteratorIP4CardEES7_S7_EENS_4pairIT_T1_EES9_T0_SA_, symObjAddr: 0x4B30, symBinAddr: 0x100008D2C, symSize: 0xA8 }
  - { offsetInCU: 0x1091D, offset: 0x1091D, size: 0x8, addend: 0x0, symName: __ZNSt3__18_IterOpsINS_17_ClassicAlgPolicyEE11__iter_moveB7v160006IRNS_16reverse_iteratorIP4CardEEEENS_9enable_ifIXsr12is_referenceIDTdeclsr3stdE7declvalIRT_EEEEE5valueEDTclsr3stdE4movedeclsr3stdE7declvalISB_EEEEE4typeEOSA_, symObjAddr: 0x4D38, symBinAddr: 0x100008F34, symSize: 0x28 }
  - { offsetInCU: 0x10949, offset: 0x10949, size: 0x8, addend: 0x0, symName: __ZNSt3__18_IterOpsINS_17_ClassicAlgPolicyEE25__validate_iter_referenceB7v160006IRNS_16reverse_iteratorIP4CardEEEEvv, symObjAddr: 0x4D60, symBinAddr: 0x100008F5C, symSize: 0x4 }
  - { offsetInCU: 0x10967, offset: 0x10967, size: 0x8, addend: 0x0, symName: __ZNSt3__118__unwrap_iter_implINS_16reverse_iteratorIP4CardEELb0EE8__unwrapB7v160006ES4_, symObjAddr: 0x4D64, symBinAddr: 0x100008F60, symSize: 0x24 }
  - { offsetInCU: 0x1098A, offset: 0x1098A, size: 0x8, addend: 0x0, symName: __ZNSt3__14pairINS_16reverse_iteratorIP4CardEES4_EC1B7v160006ERKS4_S7_, symObjAddr: 0x4D88, symBinAddr: 0x100008F84, symSize: 0x3C }
  - { offsetInCU: 0x109CF, offset: 0x109CF, size: 0x8, addend: 0x0, symName: __ZNSt3__14pairINS_16reverse_iteratorIP4CardEES4_EC2B7v160006ERKS4_S7_, symObjAddr: 0x4DC4, symBinAddr: 0x100008FC0, symSize: 0x34 }
  - { offsetInCU: 0x10A14, offset: 0x10A14, size: 0x8, addend: 0x0, symName: __ZNSt3__118__unwrap_iter_implINS_16reverse_iteratorIP4CardEELb0EE8__rewrapB7v160006ES4_S4_, symObjAddr: 0x4DF8, symBinAddr: 0x100008FF4, symSize: 0x2C }
  - { offsetInCU: 0x10A42, offset: 0x10A42, size: 0x8, addend: 0x0, symName: __ZNSt3__114__split_bufferI4CardRNS_9allocatorIS1_EEED2Ev, symObjAddr: 0x4E24, symBinAddr: 0x100009020, symSize: 0x80 }
  - { offsetInCU: 0x10A6D, offset: 0x10A6D, size: 0x8, addend: 0x0, symName: __ZNSt3__114__split_bufferI4CardRNS_9allocatorIS1_EEE5clearB7v160006Ev, symObjAddr: 0x4EA4, symBinAddr: 0x1000090A0, symSize: 0x28 }
  - { offsetInCU: 0x10A92, offset: 0x10A92, size: 0x8, addend: 0x0, symName: __ZNKSt3__114__split_bufferI4CardRNS_9allocatorIS1_EEE8capacityB7v160006Ev, symObjAddr: 0x4ECC, symBinAddr: 0x1000090C8, symSize: 0x40 }
  - { offsetInCU: 0x10AB7, offset: 0x10AB7, size: 0x8, addend: 0x0, symName: __ZNSt3__114__split_bufferI4CardRNS_9allocatorIS1_EEE17__destruct_at_endB7v160006EPS1_, symObjAddr: 0x4F0C, symBinAddr: 0x100009108, symSize: 0x2C }
  - { offsetInCU: 0x10AE9, offset: 0x10AE9, size: 0x8, addend: 0x0, symName: __ZNSt3__114__split_bufferI4CardRNS_9allocatorIS1_EEE17__destruct_at_endB7v160006EPS1_NS_17integral_constantIbLb0EEE, symObjAddr: 0x4F38, symBinAddr: 0x100009134, symSize: 0x94 }
  - { offsetInCU: 0x10B29, offset: 0x10B29, size: 0x8, addend: 0x0, symName: __ZNKSt3__114__split_bufferI4CardRNS_9allocatorIS1_EEE9__end_capB7v160006Ev, symObjAddr: 0x4FCC, symBinAddr: 0x1000091C8, symSize: 0x28 }
  - { offsetInCU: 0x10B4E, offset: 0x10B4E, size: 0x8, addend: 0x0, symName: __ZNKSt3__117__compressed_pairIP4CardRNS_9allocatorIS1_EEE5firstB7v160006Ev, symObjAddr: 0x4FF4, symBinAddr: 0x1000091F0, symSize: 0x24 }
  - { offsetInCU: 0x10B73, offset: 0x10B73, size: 0x8, addend: 0x0, symName: __ZN4CardC2ENS_4RankENS_4SuitE, symObjAddr: 0x5018, symBinAddr: 0x100009214, symSize: 0x34 }
  - { offsetInCU: 0x10BB8, offset: 0x10BB8, size: 0x8, addend: 0x0, symName: __ZNSt3__124uniform_int_distributionIlEC1Ell, symObjAddr: 0x5094, symBinAddr: 0x100009290, symSize: 0x3C }
  - { offsetInCU: 0x10BFD, offset: 0x10BFD, size: 0x8, addend: 0x0, symName: __ZNSt3__111__wrap_iterIP4CardEmmB7v160006Ev, symObjAddr: 0x50D0, symBinAddr: 0x1000092CC, symSize: 0x20 }
  - { offsetInCU: 0x10C22, offset: 0x10C22, size: 0x8, addend: 0x0, symName: __ZNSt3__124uniform_int_distributionIlE10param_typeC1Ell, symObjAddr: 0x52AC, symBinAddr: 0x1000094A8, symSize: 0x3C }
  - { offsetInCU: 0x10C67, offset: 0x10C67, size: 0x8, addend: 0x0, symName: __ZNKSt3__111__wrap_iterIP4CardEdeB7v160006Ev, symObjAddr: 0x533C, symBinAddr: 0x100009538, symSize: 0x18 }
  - { offsetInCU: 0x10C8C, offset: 0x10C8C, size: 0x8, addend: 0x0, symName: __ZNKSt3__111__wrap_iterIP4CardEplB7v160006El, symObjAddr: 0x5354, symBinAddr: 0x100009550, symSize: 0x3C }
  - { offsetInCU: 0x10CCD, offset: 0x10CCD, size: 0x8, addend: 0x0, symName: __ZNSt3__111__wrap_iterIP4CardEppB7v160006Ev, symObjAddr: 0x5390, symBinAddr: 0x10000958C, symSize: 0x20 }
  - { offsetInCU: 0x10CF2, offset: 0x10CF2, size: 0x8, addend: 0x0, symName: __ZNKSt3__111__wrap_iterIP4CardE4baseB7v160006Ev, symObjAddr: 0x53B0, symBinAddr: 0x1000095AC, symSize: 0x18 }
  - { offsetInCU: 0x10D17, offset: 0x10D17, size: 0x8, addend: 0x0, symName: __ZNSt3__124uniform_int_distributionIlEC2Ell, symObjAddr: 0x53C8, symBinAddr: 0x1000095C4, symSize: 0x3C }
  - { offsetInCU: 0x10D5C, offset: 0x10D5C, size: 0x8, addend: 0x0, symName: __ZNKSt3__124uniform_int_distributionIlE10param_type1bEv, symObjAddr: 0x5404, symBinAddr: 0x100009600, symSize: 0x18 }
  - { offsetInCU: 0x10D81, offset: 0x10D81, size: 0x8, addend: 0x0, symName: __ZNKSt3__124uniform_int_distributionIlE10param_type1aEv, symObjAddr: 0x541C, symBinAddr: 0x100009618, symSize: 0x18 }
  - { offsetInCU: 0x10DA6, offset: 0x10DA6, size: 0x8, addend: 0x0, symName: __ZNSt3__125__independent_bits_engineINS_12__rs_defaultEmEC1ERS1_m, symObjAddr: 0x5434, symBinAddr: 0x100009630, symSize: 0x3C }
  - { offsetInCU: 0x10DEC, offset: 0x10DEC, size: 0x8, addend: 0x0, symName: __ZNSt3__125__independent_bits_engineINS_12__rs_defaultEmEclEv, symObjAddr: 0x5470, symBinAddr: 0x10000966C, symSize: 0x24 }
  - { offsetInCU: 0x10E11, offset: 0x10E11, size: 0x8, addend: 0x0, symName: __ZNSt3__114numeric_limitsImE3maxB7v160006Ev, symObjAddr: 0x54E8, symBinAddr: 0x1000096E4, symSize: 0x14 }
  - { offsetInCU: 0x10E25, offset: 0x10E25, size: 0x8, addend: 0x0, symName: __ZNSt3__125__independent_bits_engineINS_12__rs_defaultEmEC2ERS1_m, symObjAddr: 0x54FC, symBinAddr: 0x1000096F8, symSize: 0x264 }
  - { offsetInCU: 0x10E6B, offset: 0x10E6B, size: 0x8, addend: 0x0, symName: __ZNSt3__125__independent_bits_engineINS_12__rs_defaultEmE6__evalENS_17integral_constantIbLb1EEE, symObjAddr: 0x5760, symBinAddr: 0x10000995C, symSize: 0x1F0 }
  - { offsetInCU: 0x10F2B, offset: 0x10F2B, size: 0x8, addend: 0x0, symName: __ZNSt3__112__rs_default3minEv, symObjAddr: 0x5950, symBinAddr: 0x100009B4C, symSize: 0x8 }
  - { offsetInCU: 0x10F3F, offset: 0x10F3F, size: 0x8, addend: 0x0, symName: __ZNSt3__123__libcpp_numeric_limitsImLb1EE3maxB7v160006Ev, symObjAddr: 0x5974, symBinAddr: 0x100009B70, symSize: 0x8 }
  - { offsetInCU: 0x10F53, offset: 0x10F53, size: 0x8, addend: 0x0, symName: __ZNSt3__124uniform_int_distributionIlE10param_typeC2Ell, symObjAddr: 0x597C, symBinAddr: 0x100009B78, symSize: 0x2C }
  - { offsetInCU: 0x10F98, offset: 0x10F98, size: 0x8, addend: 0x0, symName: __ZNSt3__111__wrap_iterIP4CardEpLB7v160006El, symObjAddr: 0x59A8, symBinAddr: 0x100009BA4, symSize: 0x30 }
  - { offsetInCU: 0x10FCB, offset: 0x10FCB, size: 0x8, addend: 0x0, symName: __ZNSt3__16vectorI4CardNS_9allocatorIS1_EEE11__make_iterB7v160006EPS1_, symObjAddr: 0x59D8, symBinAddr: 0x100009BD4, symSize: 0x34 }
  - { offsetInCU: 0x10FFF, offset: 0x10FFF, size: 0x8, addend: 0x0, symName: __ZNSt3__111__wrap_iterIP4CardEC1B7v160006EPKvS2_, symObjAddr: 0x5A0C, symBinAddr: 0x100009C08, symSize: 0x3C }
  - { offsetInCU: 0x11044, offset: 0x11044, size: 0x8, addend: 0x0, symName: __ZNSt3__111__wrap_iterIP4CardEC2B7v160006EPKvS2_, symObjAddr: 0x5A48, symBinAddr: 0x100009C44, symSize: 0x24 }
  - { offsetInCU: 0x11089, offset: 0x11089, size: 0x8, addend: 0x0, symName: __ZNSt3__16vectorI6PlayerNS_9allocatorIS1_EEE11__make_iterB7v160006EPS1_, symObjAddr: 0x5A6C, symBinAddr: 0x100009C68, symSize: 0x34 }
  - { offsetInCU: 0x110BD, offset: 0x110BD, size: 0x8, addend: 0x0, symName: __ZNSt3__111__wrap_iterIP6PlayerEC1B7v160006EPKvS2_, symObjAddr: 0x5AA0, symBinAddr: 0x100009C9C, symSize: 0x3C }
  - { offsetInCU: 0x11102, offset: 0x11102, size: 0x8, addend: 0x0, symName: __ZNSt3__111__wrap_iterIP6PlayerEC2B7v160006EPKvS2_, symObjAddr: 0x5ADC, symBinAddr: 0x100009CD8, symSize: 0x24 }
  - { offsetInCU: 0x11147, offset: 0x11147, size: 0x8, addend: 0x0, symName: __ZNKSt3__111__wrap_iterIP6PlayerE4baseB7v160006Ev, symObjAddr: 0x5B48, symBinAddr: 0x100009D44, symSize: 0x18 }
  - { offsetInCU: 0x1116C, offset: 0x1116C, size: 0x8, addend: 0x0, symName: __ZN6Player7AddCardE4Card, symObjAddr: 0x5B60, symBinAddr: 0x100009D5C, symSize: 0x80 }
  - { offsetInCU: 0x1119F, offset: 0x1119F, size: 0x8, addend: 0x0, symName: __ZNSt3__16vectorI4CardNS_9allocatorIS1_EEE4backB7v160006Ev, symObjAddr: 0x5BE0, symBinAddr: 0x100009DDC, symSize: 0x1C }
  - { offsetInCU: 0x111C3, offset: 0x111C3, size: 0x8, addend: 0x0, symName: __ZNSt3__16vectorI4CardNS_9allocatorIS1_EEE8pop_backEv, symObjAddr: 0x5BFC, symBinAddr: 0x100009DF8, symSize: 0x2C }
  - { offsetInCU: 0x111E9, offset: 0x111E9, size: 0x8, addend: 0x0, symName: __ZNSt3__16vectorI4CardNS_9allocatorIS1_EEE9push_backB7v160006ERKS1_, symObjAddr: 0x5C28, symBinAddr: 0x100009E24, symSize: 0x6C }
  - { offsetInCU: 0x1121F, offset: 0x1121F, size: 0x8, addend: 0x0, symName: __ZN6Player12AdjustForAceEv, symObjAddr: 0x5C94, symBinAddr: 0x100009E90, symSize: 0x114 }
  - { offsetInCU: 0x112A5, offset: 0x112A5, size: 0x8, addend: 0x0, symName: __ZNSt3__16vectorI4CardNS_9allocatorIS1_EEE22__construct_one_at_endB7v160006IJRKS1_EEEvDpOT_, symObjAddr: 0x5DA8, symBinAddr: 0x100009FA4, symSize: 0x98 }
  - { offsetInCU: 0x112F2, offset: 0x112F2, size: 0x8, addend: 0x0, symName: __ZNSt3__16vectorI4CardNS_9allocatorIS1_EEE21__push_back_slow_pathIRKS1_EEvOT_, symObjAddr: 0x5E40, symBinAddr: 0x10000A03C, symSize: 0xE0 }
  - { offsetInCU: 0x1134F, offset: 0x1134F, size: 0x8, addend: 0x0, symName: __ZNSt3__116allocator_traitsINS_9allocatorI4CardEEE9constructB7v160006IS2_JRKS2_EvEEvRS3_PT_DpOT0_, symObjAddr: 0x5F20, symBinAddr: 0x10000A11C, symSize: 0x34 }
  - { offsetInCU: 0x113A6, offset: 0x113A6, size: 0x8, addend: 0x0, symName: __ZNSt3__19allocatorI4CardE9constructB7v160006IS1_JRKS1_EEEvPT_DpOT0_, symObjAddr: 0x5F54, symBinAddr: 0x10000A150, symSize: 0x30 }
  - { offsetInCU: 0x113FB, offset: 0x113FB, size: 0x8, addend: 0x0, symName: __ZNK6Player12GetHandValueEv, symObjAddr: 0x5F84, symBinAddr: 0x10000A180, symSize: 0x8C }
  - { offsetInCU: 0x11481, offset: 0x11481, size: 0x8, addend: 0x0, symName: __ZNK4Card7GetRankEv, symObjAddr: 0x6044, symBinAddr: 0x10000A240, symSize: 0x18 }
  - { offsetInCU: 0x114A6, offset: 0x114A6, size: 0x8, addend: 0x0, symName: __ZNK4Card8GetValueEv, symObjAddr: 0x605C, symBinAddr: 0x10000A258, symSize: 0x70 }
  - { offsetInCU: 0x114CB, offset: 0x114CB, size: 0x8, addend: 0x0, symName: __ZNK4Card7GetSuitEv, symObjAddr: 0x60CC, symBinAddr: 0x10000A2C8, symSize: 0x18 }
  - { offsetInCU: 0x114EF, offset: 0x114EF, size: 0x8, addend: 0x0, symName: __ZNKSt3__16vectorI4CardNS_9allocatorIS1_EEE5beginB7v160006Ev, symObjAddr: 0x60E4, symBinAddr: 0x10000A2E0, symSize: 0x30 }
  - { offsetInCU: 0x11515, offset: 0x11515, size: 0x8, addend: 0x0, symName: __ZNKSt3__16vectorI4CardNS_9allocatorIS1_EEE3endB7v160006Ev, symObjAddr: 0x6114, symBinAddr: 0x10000A310, symSize: 0x30 }
  - { offsetInCU: 0x1153C, offset: 0x1153C, size: 0x8, addend: 0x0, symName: __ZNKSt3__111__wrap_iterIPK4CardEdeB7v160006Ev, symObjAddr: 0x6178, symBinAddr: 0x10000A374, symSize: 0x18 }
  - { offsetInCU: 0x11561, offset: 0x11561, size: 0x8, addend: 0x0, symName: __ZNSt3__111__wrap_iterIPK4CardEppB7v160006Ev, symObjAddr: 0x6190, symBinAddr: 0x10000A38C, symSize: 0x20 }
  - { offsetInCU: 0x11586, offset: 0x11586, size: 0x8, addend: 0x0, symName: __ZNKSt3__16vectorI4CardNS_9allocatorIS1_EEE11__make_iterB7v160006EPKS1_, symObjAddr: 0x61B0, symBinAddr: 0x10000A3AC, symSize: 0x34 }
  - { offsetInCU: 0x115BA, offset: 0x115BA, size: 0x8, addend: 0x0, symName: __ZNSt3__111__wrap_iterIPK4CardEC1B7v160006EPKvS3_, symObjAddr: 0x61E4, symBinAddr: 0x10000A3E0, symSize: 0x3C }
  - { offsetInCU: 0x115FF, offset: 0x115FF, size: 0x8, addend: 0x0, symName: __ZNSt3__111__wrap_iterIPK4CardEC2B7v160006EPKvS3_, symObjAddr: 0x6220, symBinAddr: 0x10000A41C, symSize: 0x24 }
  - { offsetInCU: 0x11644, offset: 0x11644, size: 0x8, addend: 0x0, symName: __ZNKSt3__111__wrap_iterIPK4CardE4baseB7v160006Ev, symObjAddr: 0x628C, symBinAddr: 0x10000A488, symSize: 0x18 }
  - { offsetInCU: 0x11669, offset: 0x11669, size: 0x8, addend: 0x0, symName: __ZNSt3__16vectorI4CardNS_9allocatorIS1_EEE17__destruct_at_endB7v160006EPS1_, symObjAddr: 0x62EC, symBinAddr: 0x10000A4E8, symSize: 0x88 }
  - { offsetInCU: 0x116AC, offset: 0x116AC, size: 0x8, addend: 0x0, symName: __ZNSt3__16vectorI4CardNS_9allocatorIS1_EEE27__invalidate_iterators_pastB7v160006EPS1_, symObjAddr: 0x6374, symBinAddr: 0x10000A570, symSize: 0x14 }
  - { offsetInCU: 0x116E2, offset: 0x116E2, size: 0x8, addend: 0x0, symName: __ZN4GameD2Ev, symObjAddr: 0x6388, symBinAddr: 0x10000A584, symSize: 0x68 }
  - { offsetInCU: 0x1170D, offset: 0x1170D, size: 0x8, addend: 0x0, symName: __ZNSt3__16vectorI6PlayerNS_9allocatorIS1_EEED1B7v160006Ev, symObjAddr: 0x63F0, symBinAddr: 0x10000A5EC, symSize: 0x2C }
  - { offsetInCU: 0x11736, offset: 0x11736, size: 0x8, addend: 0x0, symName: __ZNSt3__16vectorI6PlayerNS_9allocatorIS1_EEED2B7v160006Ev, symObjAddr: 0x641C, symBinAddr: 0x10000A618, symSize: 0x3C }
  - { offsetInCU: 0x1175F, offset: 0x1175F, size: 0x8, addend: 0x0, symName: __ZNSt3__16vectorI6PlayerNS_9allocatorIS1_EEE16__destroy_vectorC1ERS4_, symObjAddr: 0x6458, symBinAddr: 0x10000A654, symSize: 0x34 }
  - { offsetInCU: 0x11797, offset: 0x11797, size: 0x8, addend: 0x0, symName: __ZNSt3__16vectorI6PlayerNS_9allocatorIS1_EEE16__destroy_vectorclB7v160006Ev, symObjAddr: 0x648C, symBinAddr: 0x10000A688, symSize: 0x9C }
  - { offsetInCU: 0x117BC, offset: 0x117BC, size: 0x8, addend: 0x0, symName: __ZNSt3__16vectorI6PlayerNS_9allocatorIS1_EEE16__destroy_vectorC2ERS4_, symObjAddr: 0x6528, symBinAddr: 0x10000A724, symSize: 0x20 }
  - { offsetInCU: 0x117F4, offset: 0x117F4, size: 0x8, addend: 0x0, symName: __ZNSt3__16vectorI6PlayerNS_9allocatorIS1_EEE7__clearB7v160006Ev, symObjAddr: 0x6558, symBinAddr: 0x10000A754, symSize: 0x28 }
  - { offsetInCU: 0x11819, offset: 0x11819, size: 0x8, addend: 0x0, symName: __ZNSt3__16vectorI6PlayerNS_9allocatorIS1_EEE22__base_destruct_at_endB7v160006EPS1_, symObjAddr: 0x6580, symBinAddr: 0x10000A77C, symSize: 0xA0 }
  - { offsetInCU: 0x1185C, offset: 0x1185C, size: 0x8, addend: 0x0, symName: __ZNSt3__111char_traitsIcE6lengthEPKc, symObjAddr: 0x6814, symBinAddr: 0x10000AA10, symSize: 0x48 }
  - { offsetInCU: 0x1189D, offset: 0x1189D, size: 0x8, addend: 0x0, symName: __ZNKSt3__113basic_ostreamIcNS_11char_traitsIcEEE6sentrycvbB7v160006Ev, symObjAddr: 0x685C, symBinAddr: 0x10000AA58, symSize: 0x1C }
  - { offsetInCU: 0x118C2, offset: 0x118C2, size: 0x8, addend: 0x0, symName: __ZNSt3__119ostreambuf_iteratorIcNS_11char_traitsIcEEEC1B7v160006ERNS_13basic_ostreamIcS2_EE, symObjAddr: 0x6AC0, symBinAddr: 0x10000ACBC, symSize: 0x34 }
  - { offsetInCU: 0x118F9, offset: 0x118F9, size: 0x8, addend: 0x0, symName: __ZNKSt3__18ios_base5flagsB7v160006Ev, symObjAddr: 0x6AF4, symBinAddr: 0x10000ACF0, symSize: 0x18 }
  - { offsetInCU: 0x1191F, offset: 0x1191F, size: 0x8, addend: 0x0, symName: __ZNKSt3__19basic_iosIcNS_11char_traitsIcEEE4fillB7v160006Ev, symObjAddr: 0x6B0C, symBinAddr: 0x10000AD08, symSize: 0x64 }
  - { offsetInCU: 0x11946, offset: 0x11946, size: 0x8, addend: 0x0, symName: __ZNKSt3__119ostreambuf_iteratorIcNS_11char_traitsIcEEE6failedB7v160006Ev, symObjAddr: 0x6B70, symBinAddr: 0x10000AD6C, symSize: 0x24 }
  - { offsetInCU: 0x1196B, offset: 0x1196B, size: 0x8, addend: 0x0, symName: __ZNSt3__19basic_iosIcNS_11char_traitsIcEEE8setstateB7v160006Ej, symObjAddr: 0x6B94, symBinAddr: 0x10000AD90, symSize: 0x2C }
  - { offsetInCU: 0x1199F, offset: 0x1199F, size: 0x8, addend: 0x0, symName: __ZNKSt3__18ios_base5widthB7v160006Ev, symObjAddr: 0x6BC0, symBinAddr: 0x10000ADBC, symSize: 0x18 }
  - { offsetInCU: 0x119C6, offset: 0x119C6, size: 0x8, addend: 0x0, symName: __ZNSt3__115basic_streambufIcNS_11char_traitsIcEEE5sputnB7v160006EPKcl, symObjAddr: 0x6BD8, symBinAddr: 0x10000ADD4, symSize: 0x3C }
  - { offsetInCU: 0x11A07, offset: 0x11A07, size: 0x8, addend: 0x0, symName: __ZNSt3__112basic_stringIcNS_11char_traitsIcEENS_9allocatorIcEEEC1B7v160006Emc, symObjAddr: 0x6C14, symBinAddr: 0x10000AE10, symSize: 0x3C }
  - { offsetInCU: 0x11A4E, offset: 0x11A4E, size: 0x8, addend: 0x0, symName: __ZNKSt3__112basic_stringIcNS_11char_traitsIcEENS_9allocatorIcEEE4dataB7v160006Ev, symObjAddr: 0x6C50, symBinAddr: 0x10000AE4C, symSize: 0x28 }
  - { offsetInCU: 0x11A73, offset: 0x11A73, size: 0x8, addend: 0x0, symName: __ZNSt3__18ios_base5widthB7v160006El, symObjAddr: 0x6C78, symBinAddr: 0x10000AE74, symSize: 0x2C }
  - { offsetInCU: 0x11AB8, offset: 0x11AB8, size: 0x8, addend: 0x0, symName: __ZNSt3__112basic_stringIcNS_11char_traitsIcEENS_9allocatorIcEEEC2B7v160006Emc, symObjAddr: 0x6CA4, symBinAddr: 0x10000AEA0, symSize: 0x54 }
  - { offsetInCU: 0x11AFF, offset: 0x11AFF, size: 0x8, addend: 0x0, symName: __ZNSt3__117__compressed_pairINS_12basic_stringIcNS_11char_traitsIcEENS_9allocatorIcEEE5__repES5_EC1B7v160006INS_18__default_init_tagESA_EEOT_OT0_, symObjAddr: 0x6CF8, symBinAddr: 0x10000AEF4, symSize: 0x3C }
  - { offsetInCU: 0x11B56, offset: 0x11B56, size: 0x8, addend: 0x0, symName: __ZNSt3__117__compressed_pairINS_12basic_stringIcNS_11char_traitsIcEENS_9allocatorIcEEE5__repES5_EC2B7v160006INS_18__default_init_tagESA_EEOT_OT0_, symObjAddr: 0x6D44, symBinAddr: 0x10000AF40, symSize: 0x3C }
  - { offsetInCU: 0x11BAD, offset: 0x11BAD, size: 0x8, addend: 0x0, symName: __ZNSt3__122__compressed_pair_elemINS_12basic_stringIcNS_11char_traitsIcEENS_9allocatorIcEEE5__repELi0ELb0EEC2B7v160006ENS_18__default_init_tagE, symObjAddr: 0x6D80, symBinAddr: 0x10000AF7C, symSize: 0x14 }
  - { offsetInCU: 0x11BE1, offset: 0x11BE1, size: 0x8, addend: 0x0, symName: __ZNSt3__122__compressed_pair_elemINS_9allocatorIcEELi1ELb1EEC2B7v160006ENS_18__default_init_tagE, symObjAddr: 0x6D94, symBinAddr: 0x10000AF90, symSize: 0x2C }
  - { offsetInCU: 0x11C15, offset: 0x11C15, size: 0x8, addend: 0x0, symName: __ZNSt3__19allocatorIcEC2B7v160006Ev, symObjAddr: 0x6DC0, symBinAddr: 0x10000AFBC, symSize: 0x2C }
  - { offsetInCU: 0x11C3E, offset: 0x11C3E, size: 0x8, addend: 0x0, symName: __ZNSt3__116__non_trivial_ifILb1ENS_9allocatorIcEEEC2B7v160006Ev, symObjAddr: 0x6DEC, symBinAddr: 0x10000AFE8, symSize: 0x14 }
  - { offsetInCU: 0x11C67, offset: 0x11C67, size: 0x8, addend: 0x0, symName: __ZNKSt3__112basic_stringIcNS_11char_traitsIcEENS_9allocatorIcEEE13__get_pointerB7v160006Ev, symObjAddr: 0x6E14, symBinAddr: 0x10000B010, symSize: 0x54 }
  - { offsetInCU: 0x11C8C, offset: 0x11C8C, size: 0x8, addend: 0x0, symName: __ZNKSt3__112basic_stringIcNS_11char_traitsIcEENS_9allocatorIcEEE9__is_longB7v160006Ev, symObjAddr: 0x6E68, symBinAddr: 0x10000B064, symSize: 0x74 }
  - { offsetInCU: 0x11CB1, offset: 0x11CB1, size: 0x8, addend: 0x0, symName: __ZNKSt3__112basic_stringIcNS_11char_traitsIcEENS_9allocatorIcEEE18__get_long_pointerB7v160006Ev, symObjAddr: 0x6EDC, symBinAddr: 0x10000B0D8, symSize: 0x28 }
  - { offsetInCU: 0x11CD6, offset: 0x11CD6, size: 0x8, addend: 0x0, symName: __ZNKSt3__112basic_stringIcNS_11char_traitsIcEENS_9allocatorIcEEE19__get_short_pointerB7v160006Ev, symObjAddr: 0x6F04, symBinAddr: 0x10000B100, symSize: 0x28 }
  - { offsetInCU: 0x11CFB, offset: 0x11CFB, size: 0x8, addend: 0x0, symName: __ZNKSt3__117__compressed_pairINS_12basic_stringIcNS_11char_traitsIcEENS_9allocatorIcEEE5__repES5_E5firstB7v160006Ev, symObjAddr: 0x6F2C, symBinAddr: 0x10000B128, symSize: 0x24 }
  - { offsetInCU: 0x11D20, offset: 0x11D20, size: 0x8, addend: 0x0, symName: __ZNKSt3__122__compressed_pair_elemINS_12basic_stringIcNS_11char_traitsIcEENS_9allocatorIcEEE5__repELi0ELb0EE5__getB7v160006Ev, symObjAddr: 0x6F50, symBinAddr: 0x10000B14C, symSize: 0x14 }
  - { offsetInCU: 0x11D45, offset: 0x11D45, size: 0x8, addend: 0x0, symName: __ZNSt3__114pointer_traitsIPKcE10pointer_toB7v160006ERS1_, symObjAddr: 0x6F64, symBinAddr: 0x10000B160, symSize: 0x14 }
  - { offsetInCU: 0x11D68, offset: 0x11D68, size: 0x8, addend: 0x0, symName: __ZNSt3__119ostreambuf_iteratorIcNS_11char_traitsIcEEEC2B7v160006ERNS_13basic_ostreamIcS2_EE, symObjAddr: 0x6F78, symBinAddr: 0x10000B174, symSize: 0x68 }
  - { offsetInCU: 0x11D9E, offset: 0x11D9E, size: 0x8, addend: 0x0, symName: __ZNKSt3__19basic_iosIcNS_11char_traitsIcEEE5rdbufB7v160006Ev, symObjAddr: 0x6FE0, symBinAddr: 0x10000B1DC, symSize: 0x24 }
  - { offsetInCU: 0x11DC5, offset: 0x11DC5, size: 0x8, addend: 0x0, symName: __ZNKSt3__18ios_base5rdbufB7v160006Ev, symObjAddr: 0x7004, symBinAddr: 0x10000B200, symSize: 0x18 }
  - { offsetInCU: 0x11DEA, offset: 0x11DEA, size: 0x8, addend: 0x0, symName: __ZNSt3__111char_traitsIcE11eq_int_typeEii, symObjAddr: 0x701C, symBinAddr: 0x10000B218, symSize: 0x28 }
  - { offsetInCU: 0x11E1B, offset: 0x11E1B, size: 0x8, addend: 0x0, symName: __ZNSt3__111char_traitsIcE3eofEv, symObjAddr: 0x7044, symBinAddr: 0x10000B240, symSize: 0x8 }
  - { offsetInCU: 0x11E2E, offset: 0x11E2E, size: 0x8, addend: 0x0, symName: __ZNSt3__18ios_base8setstateB7v160006Ej, symObjAddr: 0x704C, symBinAddr: 0x10000B248, symSize: 0x34 }
...
