---
triple:          'arm64-apple-darwin'
binary-path:     '/Users/thomas/Library/Mobile Documents/com~apple~CloudDocs/c++/Exam/Final/111/output/1A'
relocations:
  - { offsetInCU: 0x2DC1, offset: 0x2DC1, size: 0x8, addend: 0x0, symName: __ZNSt3__124__put_character_sequenceB7v160006IcNS_11char_traitsIcEEEERNS_13basic_ostreamIT_T0_EES7_PKS4_m, symObjAddr: 0xE7C, symBinAddr: 0x100002F7C, symSize: 0x1F4 }
  - { offsetInCU: 0x7FC3, offset: 0x7FC3, size: 0x8, addend: 0x0, symName: __ZNSt3__1lsB7v160006INS_11char_traitsIcEEEERNS_13basic_ostreamIcT_EES6_PKc, symObjAddr: 0xCC, symBinAddr: 0x1000021CC, symSize: 0x48 }
  - { offsetInCU: 0x8009, offset: 0x8009, size: 0x8, addend: 0x0, symName: __ZNSt3__14endlB7v160006IcNS_11char_traitsIcEEEERNS_13basic_ostreamIT_T0_EES7_, symObjAddr: 0x7DC, symBinAddr: 0x1000028DC, symSize: 0x58 }
  - { offsetInCU: 0x8049, offset: 0x8049, size: 0x8, addend: 0x0, symName: __ZNSt3__1neB7v160006IP7MyInt_2EEbRKNS_11__wrap_iterIT_EES7_, symObjAddr: 0xA18, symBinAddr: 0x100002B18, symSize: 0x34 }
  - { offsetInCU: 0x808C, offset: 0x808C, size: 0x8, addend: 0x0, symName: __ZNSt3__1neB7v160006IPP7MyInt_1EEbRKNS_11__wrap_iterIT_EES8_, symObjAddr: 0xBC8, symBinAddr: 0x100002CC8, symSize: 0x34 }
  - { offsetInCU: 0x80CF, offset: 0x80CF, size: 0x8, addend: 0x0, symName: __ZNSt3__19use_facetB7v160006INS_5ctypeIcEEEERKT_RKNS_6localeE, symObjAddr: 0xE18, symBinAddr: 0x100002F18, symSize: 0x2C }
  - { offsetInCU: 0x859E, offset: 0x859E, size: 0x8, addend: 0x0, symName: __ZNSt3__116__pad_and_outputB7v160006IcNS_11char_traitsIcEEEENS_19ostreambuf_iteratorIT_T0_EES6_PKS4_S8_S8_RNS_8ios_baseES4_, symObjAddr: 0x10D4, symBinAddr: 0x1000031D4, symSize: 0x248 }
  - { offsetInCU: 0x866D, offset: 0x866D, size: 0x8, addend: 0x0, symName: __ZNSt3__119__debug_db_insert_cB7v160006INS_12basic_stringIcNS_11char_traitsIcEENS_9allocatorIcEEEEEEvPT_, symObjAddr: 0x1590, symBinAddr: 0x100003690, symSize: 0x10 }
  - { offsetInCU: 0x869E, offset: 0x869E, size: 0x8, addend: 0x0, symName: __ZNSt3__112__to_addressB7v160006IKcEEPT_S3_, symObjAddr: 0x165C, symBinAddr: 0x10000375C, symSize: 0x14 }
  - { offsetInCU: 0x86D3, offset: 0x86D3, size: 0x8, addend: 0x0, symName: __ZNSt3__130__libcpp_is_constant_evaluatedB7v160006Ev, symObjAddr: 0x1788, symBinAddr: 0x100003888, symSize: 0xC }
  - { offsetInCU: 0x8723, offset: 0x8723, size: 0x8, addend: 0x0, symName: __ZNSt3__118__constexpr_strlenB7v160006EPKc, symObjAddr: 0x18E8, symBinAddr: 0x1000039E8, symSize: 0x24 }
  - { offsetInCU: 0x874F, offset: 0x874F, size: 0x8, addend: 0x0, symName: __ZNSt3__119__debug_db_insert_cB7v160006INS_6vectorI7MyInt_2NS_9allocatorIS2_EEEEEEvPT_, symObjAddr: 0x1994, symBinAddr: 0x100003A94, symSize: 0x10 }
  - { offsetInCU: 0x8780, offset: 0x8780, size: 0x8, addend: 0x0, symName: __ZNSt3__118__debug_db_erase_cB7v160006INS_6vectorI7MyInt_2NS_9allocatorIS2_EEEEEEvPT_, symObjAddr: 0x1C50, symBinAddr: 0x100003D50, symSize: 0x10 }
  - { offsetInCU: 0x87B1, offset: 0x87B1, size: 0x8, addend: 0x0, symName: __ZNSt3__112__to_addressB7v160006I7MyInt_2EEPT_S3_, symObjAddr: 0x1D94, symBinAddr: 0x100003E94, symSize: 0x14 }
  - { offsetInCU: 0x87E6, offset: 0x87E6, size: 0x8, addend: 0x0, symName: __ZNSt3__119__libcpp_deallocateB7v160006EPvmm, symObjAddr: 0x1EF8, symBinAddr: 0x100003FF8, symSize: 0x30 }
  - { offsetInCU: 0x882E, offset: 0x882E, size: 0x8, addend: 0x0, symName: __ZNSt3__127__do_deallocate_handle_sizeB7v160006IJEEEvPvmDpT_, symObjAddr: 0x1F28, symBinAddr: 0x100004028, symSize: 0x28 }
  - { offsetInCU: 0x886C, offset: 0x886C, size: 0x8, addend: 0x0, symName: __ZNSt3__124__libcpp_operator_deleteB7v160006IJPvEEEvDpT_, symObjAddr: 0x1F50, symBinAddr: 0x100004050, symSize: 0x24 }
  - { offsetInCU: 0x88A1, offset: 0x88A1, size: 0x8, addend: 0x0, symName: __ZNSt3__13maxB7v160006ImEERKT_S3_S3_, symObjAddr: 0x2694, symBinAddr: 0x100004794, symSize: 0x2C }
  - { offsetInCU: 0x88E4, offset: 0x88E4, size: 0x8, addend: 0x0, symName: __ZNSt3__13minB7v160006ImEERKT_S3_S3_, symObjAddr: 0x26C0, symBinAddr: 0x1000047C0, symSize: 0x2C }
  - { offsetInCU: 0x8B28, offset: 0x8B28, size: 0x8, addend: 0x0, symName: __ZNSt3__13minB7v160006ImNS_6__lessImmEEEERKT_S5_S5_T0_, symObjAddr: 0x274C, symBinAddr: 0x10000484C, symSize: 0x54 }
  - { offsetInCU: 0x8BBD, offset: 0x8BBD, size: 0x8, addend: 0x0, symName: __ZNSt3__120__throw_length_errorB7v160006EPKc, symObjAddr: 0x2828, symBinAddr: 0x100004928, symSize: 0x64 }
  - { offsetInCU: 0x8BE5, offset: 0x8BE5, size: 0x8, addend: 0x0, symName: __ZNSt3__13maxB7v160006ImNS_6__lessImmEEEERKT_S5_S5_T0_, symObjAddr: 0x290C, symBinAddr: 0x100004A0C, symSize: 0x54 }
  - { offsetInCU: 0x8C3F, offset: 0x8C3F, size: 0x8, addend: 0x0, symName: __ZNSt3__119__allocate_at_leastB7v160006INS_9allocatorI7MyInt_2EEEENS_19__allocation_resultINS_16allocator_traitsIT_E7pointerEEERS6_m, symObjAddr: 0x2A70, symBinAddr: 0x100004B70, symSize: 0x40 }
  - { offsetInCU: 0x8C82, offset: 0x8C82, size: 0x8, addend: 0x0, symName: __ZNSt3__117__libcpp_allocateB7v160006Emm, symObjAddr: 0x2C20, symBinAddr: 0x100004D20, symSize: 0x28 }
  - { offsetInCU: 0x8CBF, offset: 0x8CBF, size: 0x8, addend: 0x0, symName: __ZNSt3__121__libcpp_operator_newB7v160006IJmEEEPvDpT_, symObjAddr: 0x2C48, symBinAddr: 0x100004D48, symSize: 0x24 }
  - { offsetInCU: 0x8CF8, offset: 0x8CF8, size: 0x8, addend: 0x0, symName: __ZNSt3__142__uninitialized_allocator_move_if_noexceptB7v160006INS_9allocatorI7MyInt_2EENS_16reverse_iteratorIPS2_EES6_S6_EET2_RT_T0_T1_S7_, symObjAddr: 0x2CD0, symBinAddr: 0x100004DD0, symSize: 0x134 }
  - { offsetInCU: 0x8D98, offset: 0x8D98, size: 0x8, addend: 0x0, symName: __ZNSt3__14swapB7v160006IP7MyInt_2EEvRT_S4_, symObjAddr: 0x2E50, symBinAddr: 0x100004F50, symSize: 0x3C }
  - { offsetInCU: 0x8DE9, offset: 0x8DE9, size: 0x8, addend: 0x0, symName: __ZNSt3__125__debug_db_invalidate_allB7v160006INS_6vectorI7MyInt_2NS_9allocatorIS2_EEEEEEvPT_, symObjAddr: 0x2F38, symBinAddr: 0x100005038, symSize: 0x10 }
  - { offsetInCU: 0x8E1A, offset: 0x8E1A, size: 0x8, addend: 0x0, symName: __ZNSt3__122__make_exception_guardB7v160006INS_29_AllocatorDestroyRangeReverseINS_9allocatorI7MyInt_2EENS_16reverse_iteratorIPS3_EEEEEENS_28__exception_guard_exceptionsIT_EESA_, symObjAddr: 0x2F48, symBinAddr: 0x100005048, symSize: 0x4C }
  - { offsetInCU: 0x8E50, offset: 0x8E50, size: 0x8, addend: 0x0, symName: __ZNSt3__1neB7v160006IP7MyInt_2S2_EEbRKNS_16reverse_iteratorIT_EERKNS3_IT0_EE, symObjAddr: 0x2FD8, symBinAddr: 0x1000050D8, symSize: 0x48 }
  - { offsetInCU: 0x8E9C, offset: 0x8E9C, size: 0x8, addend: 0x0, symName: __ZNSt3__112__to_addressB7v160006INS_16reverse_iteratorIP7MyInt_2EEvEENS_5decayIDTclsr19__to_address_helperIT_EE6__callclsr3stdE7declvalIRKS6_EEEEE4typeES8_, symObjAddr: 0x3054, symBinAddr: 0x100005154, symSize: 0x24 }
  - { offsetInCU: 0x8EFB, offset: 0x8EFB, size: 0x8, addend: 0x0, symName: __ZNSt3__119__allocator_destroyB7v160006INS_9allocatorI7MyInt_2EENS_16reverse_iteratorINS4_IPS2_EEEES7_EEvRT_T0_T1_, symObjAddr: 0x3340, symBinAddr: 0x100005440, symSize: 0x70 }
  - { offsetInCU: 0x8F60, offset: 0x8F60, size: 0x8, addend: 0x0, symName: __ZNSt3__1neB7v160006INS_16reverse_iteratorIP7MyInt_2EES4_EEbRKNS1_IT_EERKNS1_IT0_EE, symObjAddr: 0x33EC, symBinAddr: 0x1000054EC, symSize: 0x60 }
  - { offsetInCU: 0x8FAC, offset: 0x8FAC, size: 0x8, addend: 0x0, symName: __ZNSt3__112__to_addressB7v160006INS_16reverse_iteratorINS1_IP7MyInt_2EEEEvEENS_5decayIDTclsr19__to_address_helperIT_EE6__callclsr3stdE7declvalIRKS7_EEEEE4typeES9_, symObjAddr: 0x344C, symBinAddr: 0x10000554C, symSize: 0x24 }
  - { offsetInCU: 0x900B, offset: 0x900B, size: 0x8, addend: 0x0, symName: __ZNSt3__1eqB7v160006IP7MyInt_2EEbRKNS_11__wrap_iterIT_EES7_, symObjAddr: 0x3864, symBinAddr: 0x100005964, symSize: 0x48 }
  - { offsetInCU: 0x904E, offset: 0x904E, size: 0x8, addend: 0x0, symName: __ZNSt3__119__debug_db_insert_cB7v160006INS_6vectorIP7MyInt_1NS_9allocatorIS3_EEEEEEvPT_, symObjAddr: 0x396C, symBinAddr: 0x100005A6C, symSize: 0x10 }
  - { offsetInCU: 0x907F, offset: 0x907F, size: 0x8, addend: 0x0, symName: __ZNSt3__118__debug_db_erase_cB7v160006INS_6vectorIP7MyInt_1NS_9allocatorIS3_EEEEEEvPT_, symObjAddr: 0x3C28, symBinAddr: 0x100005D28, symSize: 0x10 }
  - { offsetInCU: 0x90B0, offset: 0x90B0, size: 0x8, addend: 0x0, symName: __ZNSt3__112__to_addressB7v160006IP7MyInt_1EEPT_S4_, symObjAddr: 0x3D6C, symBinAddr: 0x100005E6C, symSize: 0x14 }
  - { offsetInCU: 0x90E5, offset: 0x90E5, size: 0x8, addend: 0x0, symName: __ZNSt3__119__allocate_at_leastB7v160006INS_9allocatorIP7MyInt_1EEEENS_19__allocation_resultINS_16allocator_traitsIT_E7pointerEEERS7_m, symObjAddr: 0x46DC, symBinAddr: 0x1000067DC, symSize: 0x40 }
  - { offsetInCU: 0x9128, offset: 0x9128, size: 0x8, addend: 0x0, symName: __ZNSt3__142__uninitialized_allocator_move_if_noexceptB7v160006INS_9allocatorIP7MyInt_1EENS_16reverse_iteratorIPS3_EES7_S3_vEET1_RT_T0_SB_S8_, symObjAddr: 0x48BC, symBinAddr: 0x1000069BC, symSize: 0xE8 }
  - { offsetInCU: 0x91A5, offset: 0x91A5, size: 0x8, addend: 0x0, symName: __ZNSt3__14swapB7v160006IPP7MyInt_1EEvRT_S5_, symObjAddr: 0x49F0, symBinAddr: 0x100006AF0, symSize: 0x3C }
  - { offsetInCU: 0x91F6, offset: 0x91F6, size: 0x8, addend: 0x0, symName: __ZNSt3__125__debug_db_invalidate_allB7v160006INS_6vectorIP7MyInt_1NS_9allocatorIS3_EEEEEEvPT_, symObjAddr: 0x4AD8, symBinAddr: 0x100006BD8, symSize: 0x10 }
  - { offsetInCU: 0x9227, offset: 0x9227, size: 0x8, addend: 0x0, symName: __ZNSt3__1neB7v160006IPP7MyInt_1S3_EEbRKNS_16reverse_iteratorIT_EERKNS4_IT0_EE, symObjAddr: 0x4AE8, symBinAddr: 0x100006BE8, symSize: 0x48 }
  - { offsetInCU: 0x9298, offset: 0x9298, size: 0x8, addend: 0x0, symName: __ZNSt3__114__construct_atB7v160006IP7MyInt_1JS2_EPS2_EEPT_S5_DpOT0_, symObjAddr: 0x4B30, symBinAddr: 0x100006C30, symSize: 0x2C }
  - { offsetInCU: 0x9308, offset: 0x9308, size: 0x8, addend: 0x0, symName: __ZNSt3__112__to_addressB7v160006INS_16reverse_iteratorIPP7MyInt_1EEvEENS_5decayIDTclsr19__to_address_helperIT_EE6__callclsr3stdE7declvalIRKS7_EEEEE4typeES9_, symObjAddr: 0x4B5C, symBinAddr: 0x100006C5C, symSize: 0x24 }
  - { offsetInCU: 0x933E, offset: 0x933E, size: 0x8, addend: 0x0, symName: __ZNSt3__14moveB7v160006INS_16reverse_iteratorIPP7MyInt_1EES5_EET0_T_S7_S6_, symObjAddr: 0x4BC8, symBinAddr: 0x100006CC8, symSize: 0x78 }
  - { offsetInCU: 0x93C1, offset: 0x93C1, size: 0x8, addend: 0x0, symName: __ZNSt3__16__moveB7v160006INS_17_ClassicAlgPolicyENS_16reverse_iteratorIPP7MyInt_1EES6_S6_EENS_4pairIT0_T2_EES8_T1_S9_, symObjAddr: 0x4CB0, symBinAddr: 0x100006DB0, symSize: 0x64 }
  - { offsetInCU: 0x942D, offset: 0x942D, size: 0x8, addend: 0x0, symName: __ZNSt3__123__dispatch_copy_or_moveB7v160006INS_17_ClassicAlgPolicyENS_11__move_loopIS1_EENS_14__move_trivialENS_16reverse_iteratorIPP7MyInt_1EES9_S9_EENS_4pairIT2_T4_EESB_T3_SC_, symObjAddr: 0x4D14, symBinAddr: 0x100006E14, symSize: 0x7C }
  - { offsetInCU: 0x94AB, offset: 0x94AB, size: 0x8, addend: 0x0, symName: __ZNSt3__121__unwrap_and_dispatchB7v160006INS_10__overloadINS_11__move_loopINS_17_ClassicAlgPolicyEEENS_14__move_trivialEEENS_16reverse_iteratorIPP7MyInt_1EESB_SB_Li0EEENS_4pairIT0_T2_EESD_T1_SE_, symObjAddr: 0x4D90, symBinAddr: 0x100006E90, symSize: 0x12C }
  - { offsetInCU: 0x953B, offset: 0x953B, size: 0x8, addend: 0x0, symName: __ZNSt3__114__unwrap_rangeB7v160006INS_16reverse_iteratorIPP7MyInt_1EES5_EENS_4pairIT0_S7_EET_S9_, symObjAddr: 0x4EBC, symBinAddr: 0x100006FBC, symSize: 0x84 }
  - { offsetInCU: 0x968F, offset: 0x968F, size: 0x8, addend: 0x0, symName: __ZNSt3__113__unwrap_iterB7v160006INS_16reverse_iteratorIPP7MyInt_1EENS_18__unwrap_iter_implIS5_Lb0EEELi0EEEDTclsrT0_8__unwrapclsr3stdE7declvalIT_EEEES9_, symObjAddr: 0x4FE0, symBinAddr: 0x1000070E0, symSize: 0x44 }
  - { offsetInCU: 0x96D3, offset: 0x96D3, size: 0x8, addend: 0x0, symName: __ZNSt3__19make_pairB7v160006INS_16reverse_iteratorIPP7MyInt_1EES5_EENS_4pairINS_18__unwrap_ref_decayIT_E4typeENS7_IT0_E4typeEEEOS8_OSB_, symObjAddr: 0x5024, symBinAddr: 0x100007124, symSize: 0x38 }
  - { offsetInCU: 0x9722, offset: 0x9722, size: 0x8, addend: 0x0, symName: __ZNSt3__114__rewrap_rangeB7v160006INS_16reverse_iteratorIPP7MyInt_1EES5_EET_S6_T0_, symObjAddr: 0x505C, symBinAddr: 0x10000715C, symSize: 0x5C }
  - { offsetInCU: 0x976E, offset: 0x976E, size: 0x8, addend: 0x0, symName: __ZNSt3__113__rewrap_iterB7v160006INS_16reverse_iteratorIPP7MyInt_1EES5_NS_18__unwrap_iter_implIS5_Lb0EEEEET_S8_T0_, symObjAddr: 0x50B8, symBinAddr: 0x1000071B8, symSize: 0x88 }
  - { offsetInCU: 0x9875, offset: 0x9875, size: 0x8, addend: 0x0, symName: __ZNSt3__1eqB7v160006IPP7MyInt_1EEbRKNS_11__wrap_iterIT_EES8_, symObjAddr: 0x54DC, symBinAddr: 0x1000075DC, symSize: 0x48 }
  - { offsetInCU: 0x9AD3, offset: 0x9AD3, size: 0x8, addend: 0x0, symName: __ZSt28__throw_bad_array_new_lengthB7v160006v, symObjAddr: 0x2BEC, symBinAddr: 0x100004CEC, symSize: 0x34 }
  - { offsetInCU: 0xA1B1, offset: 0xA1B1, size: 0x8, addend: 0x0, symName: __ZNSt3__16vectorI7MyInt_2NS_9allocatorIS1_EEE26__swap_out_circular_bufferERNS_14__split_bufferIS1_RS3_EE, symObjAddr: 0x24C0, symBinAddr: 0x1000045C0, symSize: 0x118 }
  - { offsetInCU: 0xA3CD, offset: 0xA3CD, size: 0x8, addend: 0x0, symName: __ZNSt3__16vectorIP7MyInt_1NS_9allocatorIS2_EEE26__swap_out_circular_bufferERNS_14__split_bufferIS2_RS4_EE, symObjAddr: 0x4360, symBinAddr: 0x100006460, symSize: 0x118 }
  - { offsetInCU: 0xC600, offset: 0xC600, size: 0x8, addend: 0x0, symName: __ZplR7MyInt_1S0_, symObjAddr: 0x0, symBinAddr: 0x100002100, symSize: 0x54 }
  - { offsetInCU: 0xC63B, offset: 0xC63B, size: 0x8, addend: 0x0, symName: __ZN7MyInt_14SetNEi, symObjAddr: 0x54, symBinAddr: 0x100002154, symSize: 0x20 }
  - { offsetInCU: 0xC66E, offset: 0xC66E, size: 0x8, addend: 0x0, symName: __ZN7MyInt_14GetNEv, symObjAddr: 0x74, symBinAddr: 0x100002174, symSize: 0x18 }
  - { offsetInCU: 0xC692, offset: 0xC692, size: 0x8, addend: 0x0, symName: __ZlsRNSt3__113basic_ostreamIcNS_11char_traitsIcEEEERK7MyInt_1, symObjAddr: 0x8C, symBinAddr: 0x10000218C, symSize: 0x40 }
  - { offsetInCU: 0xC6CD, offset: 0xC6CD, size: 0x8, addend: 0x0, symName: _main, symObjAddr: 0x114, symBinAddr: 0x100002214, symSize: 0x69C }
  - { offsetInCU: 0xC839, offset: 0xC839, size: 0x8, addend: 0x0, symName: __ZNSt3__113basic_ostreamIcNS_11char_traitsIcEEElsB7v160006EPFRS3_S4_E, symObjAddr: 0x7B0, symBinAddr: 0x1000028B0, symSize: 0x2C }
  - { offsetInCU: 0xC86C, offset: 0xC86C, size: 0x8, addend: 0x0, symName: __ZN7MyInt_2C1Ei, symObjAddr: 0x834, symBinAddr: 0x100002934, symSize: 0x34 }
  - { offsetInCU: 0xC900, offset: 0xC900, size: 0x8, addend: 0x0, symName: __ZN7MyInt_3C1Ei, symObjAddr: 0x868, symBinAddr: 0x100002968, symSize: 0x34 }
  - { offsetInCU: 0xC937, offset: 0xC937, size: 0x8, addend: 0x0, symName: __ZNK7MyInt_28MultiplyEv, symObjAddr: 0x89C, symBinAddr: 0x10000299C, symSize: 0x3C }
  - { offsetInCU: 0xC95C, offset: 0xC95C, size: 0x8, addend: 0x0, symName: __ZN7MyInt_29IncrementEv, symObjAddr: 0x8D8, symBinAddr: 0x1000029D8, symSize: 0x20 }
  - { offsetInCU: 0xC981, offset: 0xC981, size: 0x8, addend: 0x0, symName: __ZN7MyInt_24GetNEv, symObjAddr: 0x8F8, symBinAddr: 0x1000029F8, symSize: 0x1C }
  - { offsetInCU: 0xC9A6, offset: 0xC9A6, size: 0x8, addend: 0x0, symName: __ZN7MyInt_39IncrementEv, symObjAddr: 0x914, symBinAddr: 0x100002A14, symSize: 0x20 }
  - { offsetInCU: 0xC9CB, offset: 0xC9CB, size: 0x8, addend: 0x0, symName: __ZN7MyInt_34GetNEv, symObjAddr: 0x934, symBinAddr: 0x100002A34, symSize: 0x1C }
  - { offsetInCU: 0xC9F0, offset: 0xC9F0, size: 0x8, addend: 0x0, symName: __ZNSt3__16vectorI7MyInt_2NS_9allocatorIS1_EEEC1B7v160006Ev, symObjAddr: 0x950, symBinAddr: 0x100002A50, symSize: 0x2C }
  - { offsetInCU: 0xCA18, offset: 0xCA18, size: 0x8, addend: 0x0, symName: __ZNSt3__16vectorI7MyInt_2NS_9allocatorIS1_EEE9push_backB7v160006ERKS1_, symObjAddr: 0x97C, symBinAddr: 0x100002A7C, symSize: 0x6C }
  - { offsetInCU: 0xCA4D, offset: 0xCA4D, size: 0x8, addend: 0x0, symName: __ZNSt3__16vectorI7MyInt_2NS_9allocatorIS1_EEE5beginB7v160006Ev, symObjAddr: 0x9E8, symBinAddr: 0x100002AE8, symSize: 0x30 }
  - { offsetInCU: 0xCA73, offset: 0xCA73, size: 0x8, addend: 0x0, symName: __ZNSt3__16vectorI7MyInt_2NS_9allocatorIS1_EEE3endB7v160006Ev, symObjAddr: 0xA4C, symBinAddr: 0x100002B4C, symSize: 0x30 }
  - { offsetInCU: 0xCA9A, offset: 0xCA9A, size: 0x8, addend: 0x0, symName: __ZNKSt3__111__wrap_iterIP7MyInt_2EdeB7v160006Ev, symObjAddr: 0xA7C, symBinAddr: 0x100002B7C, symSize: 0x18 }
  - { offsetInCU: 0xCABF, offset: 0xCABF, size: 0x8, addend: 0x0, symName: __ZNSt3__111__wrap_iterIP7MyInt_2EppB7v160006Ei, symObjAddr: 0xA94, symBinAddr: 0x100002B94, symSize: 0x34 }
  - { offsetInCU: 0xCAFD, offset: 0xCAFD, size: 0x8, addend: 0x0, symName: __ZNSt3__16vectorI7MyInt_2NS_9allocatorIS1_EEED1B7v160006Ev, symObjAddr: 0xAC8, symBinAddr: 0x100002BC8, symSize: 0x2C }
  - { offsetInCU: 0xCB26, offset: 0xCB26, size: 0x8, addend: 0x0, symName: __ZNSt3__16vectorIP7MyInt_1NS_9allocatorIS2_EEEC1B7v160006Ev, symObjAddr: 0xB00, symBinAddr: 0x100002C00, symSize: 0x2C }
  - { offsetInCU: 0xCB4E, offset: 0xCB4E, size: 0x8, addend: 0x0, symName: __ZNSt3__16vectorIP7MyInt_1NS_9allocatorIS2_EEE9push_backB7v160006EOS2_, symObjAddr: 0xB2C, symBinAddr: 0x100002C2C, symSize: 0x6C }
  - { offsetInCU: 0xCB83, offset: 0xCB83, size: 0x8, addend: 0x0, symName: __ZNSt3__16vectorIP7MyInt_1NS_9allocatorIS2_EEE5beginB7v160006Ev, symObjAddr: 0xB98, symBinAddr: 0x100002C98, symSize: 0x30 }
  - { offsetInCU: 0xCBA9, offset: 0xCBA9, size: 0x8, addend: 0x0, symName: __ZNSt3__16vectorIP7MyInt_1NS_9allocatorIS2_EEE3endB7v160006Ev, symObjAddr: 0xBFC, symBinAddr: 0x100002CFC, symSize: 0x30 }
  - { offsetInCU: 0xCBD0, offset: 0xCBD0, size: 0x8, addend: 0x0, symName: __ZNKSt3__111__wrap_iterIPP7MyInt_1EdeB7v160006Ev, symObjAddr: 0xC2C, symBinAddr: 0x100002D2C, symSize: 0x18 }
  - { offsetInCU: 0xCBF5, offset: 0xCBF5, size: 0x8, addend: 0x0, symName: __ZNSt3__111__wrap_iterIPP7MyInt_1EppB7v160006Ei, symObjAddr: 0xC44, symBinAddr: 0x100002D44, symSize: 0x34 }
  - { offsetInCU: 0xCC33, offset: 0xCC33, size: 0x8, addend: 0x0, symName: __ZNSt3__16vectorIP7MyInt_1NS_9allocatorIS2_EEED1B7v160006Ev, symObjAddr: 0xC78, symBinAddr: 0x100002D78, symSize: 0x2C }
  - { offsetInCU: 0xCC5C, offset: 0xCC5C, size: 0x8, addend: 0x0, symName: __ZN7MyInt_2C2Ei, symObjAddr: 0xCA4, symBinAddr: 0x100002DA4, symSize: 0x4C }
  - { offsetInCU: 0xCC93, offset: 0xCC93, size: 0x8, addend: 0x0, symName: __ZN7MyInt_1C2Ei, symObjAddr: 0xCF0, symBinAddr: 0x100002DF0, symSize: 0x30 }
  - { offsetInCU: 0xCCCA, offset: 0xCCCA, size: 0x8, addend: 0x0, symName: __ZN7MyInt_19IncrementEv, symObjAddr: 0xD20, symBinAddr: 0x100002E20, symSize: 0x20 }
  - { offsetInCU: 0xCCEF, offset: 0xCCEF, size: 0x8, addend: 0x0, symName: __ZN7MyInt_3C2Ei, symObjAddr: 0xD40, symBinAddr: 0x100002E40, symSize: 0x4C }
  - { offsetInCU: 0xCD25, offset: 0xCD25, size: 0x8, addend: 0x0, symName: __ZNKSt3__19basic_iosIcNS_11char_traitsIcEEE5widenB7v160006Ec, symObjAddr: 0xD8C, symBinAddr: 0x100002E8C, symSize: 0x8C }
  - { offsetInCU: 0xCD92, offset: 0xCD92, size: 0x8, addend: 0x0, symName: __ZNKSt3__15ctypeIcE5widenB7v160006Ec, symObjAddr: 0xE44, symBinAddr: 0x100002F44, symSize: 0x38 }
  - { offsetInCU: 0xCDC6, offset: 0xCDC6, size: 0x8, addend: 0x0, symName: __ZNSt3__111char_traitsIcE6lengthEPKc, symObjAddr: 0x1070, symBinAddr: 0x100003170, symSize: 0x48 }
  - { offsetInCU: 0xCE07, offset: 0xCE07, size: 0x8, addend: 0x0, symName: __ZNKSt3__113basic_ostreamIcNS_11char_traitsIcEEE6sentrycvbB7v160006Ev, symObjAddr: 0x10B8, symBinAddr: 0x1000031B8, symSize: 0x1C }
  - { offsetInCU: 0xCE2C, offset: 0xCE2C, size: 0x8, addend: 0x0, symName: __ZNSt3__119ostreambuf_iteratorIcNS_11char_traitsIcEEEC1B7v160006ERNS_13basic_ostreamIcS2_EE, symObjAddr: 0x131C, symBinAddr: 0x10000341C, symSize: 0x34 }
  - { offsetInCU: 0xCE63, offset: 0xCE63, size: 0x8, addend: 0x0, symName: __ZNKSt3__18ios_base5flagsB7v160006Ev, symObjAddr: 0x1350, symBinAddr: 0x100003450, symSize: 0x18 }
  - { offsetInCU: 0xCE89, offset: 0xCE89, size: 0x8, addend: 0x0, symName: __ZNKSt3__19basic_iosIcNS_11char_traitsIcEEE4fillB7v160006Ev, symObjAddr: 0x1368, symBinAddr: 0x100003468, symSize: 0x64 }
  - { offsetInCU: 0xCEB0, offset: 0xCEB0, size: 0x8, addend: 0x0, symName: __ZNKSt3__119ostreambuf_iteratorIcNS_11char_traitsIcEEE6failedB7v160006Ev, symObjAddr: 0x13CC, symBinAddr: 0x1000034CC, symSize: 0x24 }
  - { offsetInCU: 0xCED5, offset: 0xCED5, size: 0x8, addend: 0x0, symName: __ZNSt3__19basic_iosIcNS_11char_traitsIcEEE8setstateB7v160006Ej, symObjAddr: 0x13F0, symBinAddr: 0x1000034F0, symSize: 0x2C }
  - { offsetInCU: 0xCF09, offset: 0xCF09, size: 0x8, addend: 0x0, symName: __ZNKSt3__18ios_base5widthB7v160006Ev, symObjAddr: 0x141C, symBinAddr: 0x10000351C, symSize: 0x18 }
  - { offsetInCU: 0xCF30, offset: 0xCF30, size: 0x8, addend: 0x0, symName: __ZNSt3__115basic_streambufIcNS_11char_traitsIcEEE5sputnB7v160006EPKcl, symObjAddr: 0x1434, symBinAddr: 0x100003534, symSize: 0x3C }
  - { offsetInCU: 0xCF71, offset: 0xCF71, size: 0x8, addend: 0x0, symName: __ZNSt3__112basic_stringIcNS_11char_traitsIcEENS_9allocatorIcEEEC1B7v160006Emc, symObjAddr: 0x1470, symBinAddr: 0x100003570, symSize: 0x3C }
  - { offsetInCU: 0xCFB8, offset: 0xCFB8, size: 0x8, addend: 0x0, symName: __ZNKSt3__112basic_stringIcNS_11char_traitsIcEENS_9allocatorIcEEE4dataB7v160006Ev, symObjAddr: 0x14AC, symBinAddr: 0x1000035AC, symSize: 0x28 }
  - { offsetInCU: 0xCFDD, offset: 0xCFDD, size: 0x8, addend: 0x0, symName: __ZNSt3__18ios_base5widthB7v160006El, symObjAddr: 0x14D4, symBinAddr: 0x1000035D4, symSize: 0x2C }
  - { offsetInCU: 0xD022, offset: 0xD022, size: 0x8, addend: 0x0, symName: __ZNSt3__112basic_stringIcNS_11char_traitsIcEENS_9allocatorIcEEEC2B7v160006Emc, symObjAddr: 0x1500, symBinAddr: 0x100003600, symSize: 0x54 }
  - { offsetInCU: 0xD06E, offset: 0xD06E, size: 0x8, addend: 0x0, symName: __ZNSt3__117__compressed_pairINS_12basic_stringIcNS_11char_traitsIcEENS_9allocatorIcEEE5__repES5_EC1B7v160006INS_18__default_init_tagESA_EEOT_OT0_, symObjAddr: 0x1554, symBinAddr: 0x100003654, symSize: 0x3C }
  - { offsetInCU: 0xD0C5, offset: 0xD0C5, size: 0x8, addend: 0x0, symName: __ZNSt3__117__compressed_pairINS_12basic_stringIcNS_11char_traitsIcEENS_9allocatorIcEEE5__repES5_EC2B7v160006INS_18__default_init_tagESA_EEOT_OT0_, symObjAddr: 0x15A0, symBinAddr: 0x1000036A0, symSize: 0x3C }
  - { offsetInCU: 0xD11C, offset: 0xD11C, size: 0x8, addend: 0x0, symName: __ZNSt3__122__compressed_pair_elemINS_12basic_stringIcNS_11char_traitsIcEENS_9allocatorIcEEE5__repELi0ELb0EEC2B7v160006ENS_18__default_init_tagE, symObjAddr: 0x15DC, symBinAddr: 0x1000036DC, symSize: 0x14 }
  - { offsetInCU: 0xD150, offset: 0xD150, size: 0x8, addend: 0x0, symName: __ZNSt3__122__compressed_pair_elemINS_9allocatorIcEELi1ELb1EEC2B7v160006ENS_18__default_init_tagE, symObjAddr: 0x15F0, symBinAddr: 0x1000036F0, symSize: 0x2C }
  - { offsetInCU: 0xD184, offset: 0xD184, size: 0x8, addend: 0x0, symName: __ZNSt3__19allocatorIcEC2B7v160006Ev, symObjAddr: 0x161C, symBinAddr: 0x10000371C, symSize: 0x2C }
  - { offsetInCU: 0xD1AD, offset: 0xD1AD, size: 0x8, addend: 0x0, symName: __ZNSt3__116__non_trivial_ifILb1ENS_9allocatorIcEEEC2B7v160006Ev, symObjAddr: 0x1648, symBinAddr: 0x100003748, symSize: 0x14 }
  - { offsetInCU: 0xD1D6, offset: 0xD1D6, size: 0x8, addend: 0x0, symName: __ZNKSt3__112basic_stringIcNS_11char_traitsIcEENS_9allocatorIcEEE13__get_pointerB7v160006Ev, symObjAddr: 0x1670, symBinAddr: 0x100003770, symSize: 0x54 }
  - { offsetInCU: 0xD1FB, offset: 0xD1FB, size: 0x8, addend: 0x0, symName: __ZNKSt3__112basic_stringIcNS_11char_traitsIcEENS_9allocatorIcEEE9__is_longB7v160006Ev, symObjAddr: 0x16C4, symBinAddr: 0x1000037C4, symSize: 0x74 }
  - { offsetInCU: 0xD220, offset: 0xD220, size: 0x8, addend: 0x0, symName: __ZNKSt3__112basic_stringIcNS_11char_traitsIcEENS_9allocatorIcEEE18__get_long_pointerB7v160006Ev, symObjAddr: 0x1738, symBinAddr: 0x100003838, symSize: 0x28 }
  - { offsetInCU: 0xD245, offset: 0xD245, size: 0x8, addend: 0x0, symName: __ZNKSt3__112basic_stringIcNS_11char_traitsIcEENS_9allocatorIcEEE19__get_short_pointerB7v160006Ev, symObjAddr: 0x1760, symBinAddr: 0x100003860, symSize: 0x28 }
  - { offsetInCU: 0xD26A, offset: 0xD26A, size: 0x8, addend: 0x0, symName: __ZNKSt3__117__compressed_pairINS_12basic_stringIcNS_11char_traitsIcEENS_9allocatorIcEEE5__repES5_E5firstB7v160006Ev, symObjAddr: 0x1794, symBinAddr: 0x100003894, symSize: 0x24 }
  - { offsetInCU: 0xD28F, offset: 0xD28F, size: 0x8, addend: 0x0, symName: __ZNKSt3__122__compressed_pair_elemINS_12basic_stringIcNS_11char_traitsIcEENS_9allocatorIcEEE5__repELi0ELb0EE5__getB7v160006Ev, symObjAddr: 0x17B8, symBinAddr: 0x1000038B8, symSize: 0x14 }
  - { offsetInCU: 0xD2B4, offset: 0xD2B4, size: 0x8, addend: 0x0, symName: __ZNSt3__114pointer_traitsIPKcE10pointer_toB7v160006ERS1_, symObjAddr: 0x17CC, symBinAddr: 0x1000038CC, symSize: 0x14 }
  - { offsetInCU: 0xD2D7, offset: 0xD2D7, size: 0x8, addend: 0x0, symName: __ZNSt3__119ostreambuf_iteratorIcNS_11char_traitsIcEEEC2B7v160006ERNS_13basic_ostreamIcS2_EE, symObjAddr: 0x17E0, symBinAddr: 0x1000038E0, symSize: 0x68 }
  - { offsetInCU: 0xD30D, offset: 0xD30D, size: 0x8, addend: 0x0, symName: __ZNKSt3__19basic_iosIcNS_11char_traitsIcEEE5rdbufB7v160006Ev, symObjAddr: 0x1848, symBinAddr: 0x100003948, symSize: 0x24 }
  - { offsetInCU: 0xD334, offset: 0xD334, size: 0x8, addend: 0x0, symName: __ZNKSt3__18ios_base5rdbufB7v160006Ev, symObjAddr: 0x186C, symBinAddr: 0x10000396C, symSize: 0x18 }
  - { offsetInCU: 0xD359, offset: 0xD359, size: 0x8, addend: 0x0, symName: __ZNSt3__111char_traitsIcE11eq_int_typeEii, symObjAddr: 0x1884, symBinAddr: 0x100003984, symSize: 0x28 }
  - { offsetInCU: 0xD38A, offset: 0xD38A, size: 0x8, addend: 0x0, symName: __ZNSt3__111char_traitsIcE3eofEv, symObjAddr: 0x18AC, symBinAddr: 0x1000039AC, symSize: 0x8 }
  - { offsetInCU: 0xD39D, offset: 0xD39D, size: 0x8, addend: 0x0, symName: __ZNSt3__18ios_base8setstateB7v160006Ej, symObjAddr: 0x18B4, symBinAddr: 0x1000039B4, symSize: 0x34 }
  - { offsetInCU: 0xD3D3, offset: 0xD3D3, size: 0x8, addend: 0x0, symName: __ZNSt3__16vectorI7MyInt_2NS_9allocatorIS1_EEEC2B7v160006Ev, symObjAddr: 0x190C, symBinAddr: 0x100003A0C, symSize: 0x4C }
  - { offsetInCU: 0xD401, offset: 0xD401, size: 0x8, addend: 0x0, symName: __ZNSt3__117__compressed_pairIP7MyInt_2NS_9allocatorIS1_EEEC1B7v160006IDnNS_18__default_init_tagEEEOT_OT0_, symObjAddr: 0x1958, symBinAddr: 0x100003A58, symSize: 0x3C }
  - { offsetInCU: 0xD458, offset: 0xD458, size: 0x8, addend: 0x0, symName: __ZNSt3__117__compressed_pairIP7MyInt_2NS_9allocatorIS1_EEEC2B7v160006IDnNS_18__default_init_tagEEEOT_OT0_, symObjAddr: 0x19A4, symBinAddr: 0x100003AA4, symSize: 0x40 }
  - { offsetInCU: 0xD4AF, offset: 0xD4AF, size: 0x8, addend: 0x0, symName: __ZNSt3__122__compressed_pair_elemIP7MyInt_2Li0ELb0EEC2B7v160006IDnvEEOT_, symObjAddr: 0x19E4, symBinAddr: 0x100003AE4, symSize: 0x1C }
  - { offsetInCU: 0xD4F0, offset: 0xD4F0, size: 0x8, addend: 0x0, symName: __ZNSt3__122__compressed_pair_elemINS_9allocatorI7MyInt_2EELi1ELb1EEC2B7v160006ENS_18__default_init_tagE, symObjAddr: 0x1A00, symBinAddr: 0x100003B00, symSize: 0x2C }
  - { offsetInCU: 0xD524, offset: 0xD524, size: 0x8, addend: 0x0, symName: __ZNSt3__19allocatorI7MyInt_2EC2B7v160006Ev, symObjAddr: 0x1A2C, symBinAddr: 0x100003B2C, symSize: 0x2C }
  - { offsetInCU: 0xD54D, offset: 0xD54D, size: 0x8, addend: 0x0, symName: __ZNSt3__116__non_trivial_ifILb1ENS_9allocatorI7MyInt_2EEEC2B7v160006Ev, symObjAddr: 0x1A58, symBinAddr: 0x100003B58, symSize: 0x14 }
  - { offsetInCU: 0xD576, offset: 0xD576, size: 0x8, addend: 0x0, symName: __ZNSt3__16vectorI7MyInt_2NS_9allocatorIS1_EEED2B7v160006Ev, symObjAddr: 0x1A6C, symBinAddr: 0x100003B6C, symSize: 0x3C }
  - { offsetInCU: 0xD59F, offset: 0xD59F, size: 0x8, addend: 0x0, symName: __ZNSt3__16vectorI7MyInt_2NS_9allocatorIS1_EEE16__destroy_vectorC1ERS4_, symObjAddr: 0x1AA8, symBinAddr: 0x100003BA8, symSize: 0x34 }
  - { offsetInCU: 0xD5D7, offset: 0xD5D7, size: 0x8, addend: 0x0, symName: __ZNSt3__16vectorI7MyInt_2NS_9allocatorIS1_EEE16__destroy_vectorclB7v160006Ev, symObjAddr: 0x1ADC, symBinAddr: 0x100003BDC, symSize: 0x9C }
  - { offsetInCU: 0xD5FC, offset: 0xD5FC, size: 0x8, addend: 0x0, symName: __ZNSt3__16vectorI7MyInt_2NS_9allocatorIS1_EEE16__destroy_vectorC2ERS4_, symObjAddr: 0x1B78, symBinAddr: 0x100003C78, symSize: 0x20 }
  - { offsetInCU: 0xD634, offset: 0xD634, size: 0x8, addend: 0x0, symName: __ZNKSt3__16vectorI7MyInt_2NS_9allocatorIS1_EEE17__annotate_deleteB7v160006Ev, symObjAddr: 0x1B98, symBinAddr: 0x100003C98, symSize: 0xB8 }
  - { offsetInCU: 0xD659, offset: 0xD659, size: 0x8, addend: 0x0, symName: __ZNSt3__16vectorI7MyInt_2NS_9allocatorIS1_EEE7__clearB7v160006Ev, symObjAddr: 0x1C60, symBinAddr: 0x100003D60, symSize: 0x28 }
  - { offsetInCU: 0xD67E, offset: 0xD67E, size: 0x8, addend: 0x0, symName: __ZNSt3__116allocator_traitsINS_9allocatorI7MyInt_2EEE10deallocateB7v160006ERS3_PS2_m, symObjAddr: 0x1C88, symBinAddr: 0x100003D88, symSize: 0x34 }
  - { offsetInCU: 0xD6C0, offset: 0xD6C0, size: 0x8, addend: 0x0, symName: __ZNSt3__16vectorI7MyInt_2NS_9allocatorIS1_EEE7__allocB7v160006Ev, symObjAddr: 0x1CBC, symBinAddr: 0x100003DBC, symSize: 0x28 }
  - { offsetInCU: 0xD6E5, offset: 0xD6E5, size: 0x8, addend: 0x0, symName: __ZNKSt3__16vectorI7MyInt_2NS_9allocatorIS1_EEE8capacityB7v160006Ev, symObjAddr: 0x1CE4, symBinAddr: 0x100003DE4, symSize: 0x40 }
  - { offsetInCU: 0xD70A, offset: 0xD70A, size: 0x8, addend: 0x0, symName: __ZNKSt3__16vectorI7MyInt_2NS_9allocatorIS1_EEE31__annotate_contiguous_containerB7v160006EPKvS6_S6_S6_, symObjAddr: 0x1D24, symBinAddr: 0x100003E24, symSize: 0x20 }
  - { offsetInCU: 0xD75B, offset: 0xD75B, size: 0x8, addend: 0x0, symName: __ZNKSt3__16vectorI7MyInt_2NS_9allocatorIS1_EEE4dataB7v160006Ev, symObjAddr: 0x1D44, symBinAddr: 0x100003E44, symSize: 0x28 }
  - { offsetInCU: 0xD780, offset: 0xD780, size: 0x8, addend: 0x0, symName: __ZNKSt3__16vectorI7MyInt_2NS_9allocatorIS1_EEE4sizeB7v160006Ev, symObjAddr: 0x1D6C, symBinAddr: 0x100003E6C, symSize: 0x28 }
  - { offsetInCU: 0xD7A5, offset: 0xD7A5, size: 0x8, addend: 0x0, symName: __ZNSt3__16vectorI7MyInt_2NS_9allocatorIS1_EEE22__base_destruct_at_endB7v160006EPS1_, symObjAddr: 0x1DA8, symBinAddr: 0x100003EA8, symSize: 0xA0 }
  - { offsetInCU: 0xD7E8, offset: 0xD7E8, size: 0x8, addend: 0x0, symName: __ZNSt3__116allocator_traitsINS_9allocatorI7MyInt_2EEE7destroyB7v160006IS2_vEEvRS3_PT_, symObjAddr: 0x1E48, symBinAddr: 0x100003F48, symSize: 0x2C }
  - { offsetInCU: 0xD825, offset: 0xD825, size: 0x8, addend: 0x0, symName: __ZNSt3__19allocatorI7MyInt_2E7destroyB7v160006EPS1_, symObjAddr: 0x1E74, symBinAddr: 0x100003F74, symSize: 0x14 }
  - { offsetInCU: 0xD858, offset: 0xD858, size: 0x8, addend: 0x0, symName: __ZNSt3__19allocatorI7MyInt_2E10deallocateB7v160006EPS1_m, symObjAddr: 0x1E88, symBinAddr: 0x100003F88, symSize: 0x70 }
  - { offsetInCU: 0xD899, offset: 0xD899, size: 0x8, addend: 0x0, symName: __ZNSt3__117__compressed_pairIP7MyInt_2NS_9allocatorIS1_EEE6secondB7v160006Ev, symObjAddr: 0x1F74, symBinAddr: 0x100004074, symSize: 0x24 }
  - { offsetInCU: 0xD8BE, offset: 0xD8BE, size: 0x8, addend: 0x0, symName: __ZNSt3__122__compressed_pair_elemINS_9allocatorI7MyInt_2EELi1ELb1EE5__getB7v160006Ev, symObjAddr: 0x1F98, symBinAddr: 0x100004098, symSize: 0x14 }
  - { offsetInCU: 0xD8E3, offset: 0xD8E3, size: 0x8, addend: 0x0, symName: __ZNKSt3__16vectorI7MyInt_2NS_9allocatorIS1_EEE9__end_capB7v160006Ev, symObjAddr: 0x1FAC, symBinAddr: 0x1000040AC, symSize: 0x28 }
  - { offsetInCU: 0xD908, offset: 0xD908, size: 0x8, addend: 0x0, symName: __ZNKSt3__117__compressed_pairIP7MyInt_2NS_9allocatorIS1_EEE5firstB7v160006Ev, symObjAddr: 0x1FD4, symBinAddr: 0x1000040D4, symSize: 0x24 }
  - { offsetInCU: 0xD92D, offset: 0xD92D, size: 0x8, addend: 0x0, symName: __ZNKSt3__122__compressed_pair_elemIP7MyInt_2Li0ELb0EE5__getB7v160006Ev, symObjAddr: 0x1FF8, symBinAddr: 0x1000040F8, symSize: 0x14 }
  - { offsetInCU: 0xD952, offset: 0xD952, size: 0x8, addend: 0x0, symName: __ZNSt3__16vectorI7MyInt_2NS_9allocatorIS1_EEE9__end_capB7v160006Ev, symObjAddr: 0x200C, symBinAddr: 0x10000410C, symSize: 0x28 }
  - { offsetInCU: 0xD977, offset: 0xD977, size: 0x8, addend: 0x0, symName: __ZNSt3__16vectorI7MyInt_2NS_9allocatorIS1_EEE22__construct_one_at_endB7v160006IJRKS1_EEEvDpOT_, symObjAddr: 0x2034, symBinAddr: 0x100004134, symSize: 0x98 }
  - { offsetInCU: 0xD9C4, offset: 0xD9C4, size: 0x8, addend: 0x0, symName: __ZNSt3__16vectorI7MyInt_2NS_9allocatorIS1_EEE21__push_back_slow_pathIRKS1_EEvOT_, symObjAddr: 0x20CC, symBinAddr: 0x1000041CC, symSize: 0xE0 }
  - { offsetInCU: 0xDA21, offset: 0xDA21, size: 0x8, addend: 0x0, symName: __ZNSt3__117__compressed_pairIP7MyInt_2NS_9allocatorIS1_EEE5firstB7v160006Ev, symObjAddr: 0x21AC, symBinAddr: 0x1000042AC, symSize: 0x24 }
  - { offsetInCU: 0xDA46, offset: 0xDA46, size: 0x8, addend: 0x0, symName: __ZNSt3__122__compressed_pair_elemIP7MyInt_2Li0ELb0EE5__getB7v160006Ev, symObjAddr: 0x21D0, symBinAddr: 0x1000042D0, symSize: 0x14 }
  - { offsetInCU: 0xDA84, offset: 0xDA84, size: 0x8, addend: 0x0, symName: __ZNSt3__16vectorI7MyInt_2NS_9allocatorIS1_EEE21_ConstructTransactionC1B7v160006ERS4_m, symObjAddr: 0x21E4, symBinAddr: 0x1000042E4, symSize: 0x3C }
  - { offsetInCU: 0xDACB, offset: 0xDACB, size: 0x8, addend: 0x0, symName: __ZNSt3__116allocator_traitsINS_9allocatorI7MyInt_2EEE9constructB7v160006IS2_JRKS2_EvEEvRS3_PT_DpOT0_, symObjAddr: 0x2220, symBinAddr: 0x100004320, symSize: 0x34 }
  - { offsetInCU: 0xDB22, offset: 0xDB22, size: 0x8, addend: 0x0, symName: __ZNSt3__16vectorI7MyInt_2NS_9allocatorIS1_EEE21_ConstructTransactionD1B7v160006Ev, symObjAddr: 0x2254, symBinAddr: 0x100004354, symSize: 0x2C }
  - { offsetInCU: 0xDB4B, offset: 0xDB4B, size: 0x8, addend: 0x0, symName: __ZNSt3__16vectorI7MyInt_2NS_9allocatorIS1_EEE21_ConstructTransactionC2B7v160006ERS4_m, symObjAddr: 0x2280, symBinAddr: 0x100004380, symSize: 0x44 }
  - { offsetInCU: 0xDB92, offset: 0xDB92, size: 0x8, addend: 0x0, symName: __ZNSt3__19allocatorI7MyInt_2E9constructB7v160006IS1_JRKS1_EEEvPT_DpOT0_, symObjAddr: 0x22C4, symBinAddr: 0x1000043C4, symSize: 0x30 }
  - { offsetInCU: 0xDBE7, offset: 0xDBE7, size: 0x8, addend: 0x0, symName: __ZN7MyInt_2C1ERKS_, symObjAddr: 0x22F4, symBinAddr: 0x1000043F4, symSize: 0x34 }
  - { offsetInCU: 0xDC1B, offset: 0xDC1B, size: 0x8, addend: 0x0, symName: __ZN7MyInt_2C2ERKS_, symObjAddr: 0x2328, symBinAddr: 0x100004428, symSize: 0x4C }
  - { offsetInCU: 0xDC54, offset: 0xDC54, size: 0x8, addend: 0x0, symName: __ZN7MyInt_1C2ERKS_, symObjAddr: 0x2374, symBinAddr: 0x100004474, symSize: 0x34 }
  - { offsetInCU: 0xDC88, offset: 0xDC88, size: 0x8, addend: 0x0, symName: __ZNSt3__16vectorI7MyInt_2NS_9allocatorIS1_EEE21_ConstructTransactionD2B7v160006Ev, symObjAddr: 0x23A8, symBinAddr: 0x1000044A8, symSize: 0x20 }
  - { offsetInCU: 0xDCB0, offset: 0xDCB0, size: 0x8, addend: 0x0, symName: __ZNKSt3__16vectorI7MyInt_2NS_9allocatorIS1_EEE11__recommendB7v160006Em, symObjAddr: 0x23C8, symBinAddr: 0x1000044C8, symSize: 0xB4 }
  - { offsetInCU: 0xDD04, offset: 0xDD04, size: 0x8, addend: 0x0, symName: __ZNSt3__114__split_bufferI7MyInt_2RNS_9allocatorIS1_EEEC1EmmS4_, symObjAddr: 0x247C, symBinAddr: 0x10000457C, symSize: 0x44 }
  - { offsetInCU: 0xDD59, offset: 0xDD59, size: 0x8, addend: 0x0, symName: __ZNSt3__114__split_bufferI7MyInt_2RNS_9allocatorIS1_EEED1Ev, symObjAddr: 0x25D8, symBinAddr: 0x1000046D8, symSize: 0x2C }
  - { offsetInCU: 0xDD83, offset: 0xDD83, size: 0x8, addend: 0x0, symName: __ZNKSt3__16vectorI7MyInt_2NS_9allocatorIS1_EEE8max_sizeEv, symObjAddr: 0x2604, symBinAddr: 0x100004704, symSize: 0x74 }
  - { offsetInCU: 0xDDAA, offset: 0xDDAA, size: 0x8, addend: 0x0, symName: __ZNKSt3__16vectorI7MyInt_2NS_9allocatorIS1_EEE20__throw_length_errorB7v160006Ev, symObjAddr: 0x2678, symBinAddr: 0x100004778, symSize: 0x1C }
  - { offsetInCU: 0xDDD9, offset: 0xDDD9, size: 0x8, addend: 0x0, symName: __ZNSt3__116allocator_traitsINS_9allocatorI7MyInt_2EEE8max_sizeB7v160006IS3_vEEmRKS3_, symObjAddr: 0x26EC, symBinAddr: 0x1000047EC, symSize: 0x24 }
  - { offsetInCU: 0xDE07, offset: 0xDE07, size: 0x8, addend: 0x0, symName: __ZNKSt3__16vectorI7MyInt_2NS_9allocatorIS1_EEE7__allocB7v160006Ev, symObjAddr: 0x2710, symBinAddr: 0x100004810, symSize: 0x28 }
  - { offsetInCU: 0xDE2C, offset: 0xDE2C, size: 0x8, addend: 0x0, symName: __ZNSt3__114numeric_limitsIlE3maxB7v160006Ev, symObjAddr: 0x2738, symBinAddr: 0x100004838, symSize: 0x14 }
  - { offsetInCU: 0xDE54, offset: 0xDE54, size: 0x8, addend: 0x0, symName: __ZNKSt3__16__lessImmEclB7v160006ERKmS3_, symObjAddr: 0x27A0, symBinAddr: 0x1000048A0, symSize: 0x34 }
  - { offsetInCU: 0xDE95, offset: 0xDE95, size: 0x8, addend: 0x0, symName: __ZNKSt3__19allocatorI7MyInt_2E8max_sizeB7v160006Ev, symObjAddr: 0x27D4, symBinAddr: 0x1000048D4, symSize: 0x14 }
  - { offsetInCU: 0xDEBA, offset: 0xDEBA, size: 0x8, addend: 0x0, symName: __ZNKSt3__117__compressed_pairIP7MyInt_2NS_9allocatorIS1_EEE6secondB7v160006Ev, symObjAddr: 0x27E8, symBinAddr: 0x1000048E8, symSize: 0x24 }
  - { offsetInCU: 0xDEDF, offset: 0xDEDF, size: 0x8, addend: 0x0, symName: __ZNKSt3__122__compressed_pair_elemINS_9allocatorI7MyInt_2EELi1ELb1EE5__getB7v160006Ev, symObjAddr: 0x280C, symBinAddr: 0x10000490C, symSize: 0x14 }
  - { offsetInCU: 0xDF04, offset: 0xDF04, size: 0x8, addend: 0x0, symName: __ZNSt3__123__libcpp_numeric_limitsIlLb1EE3maxB7v160006Ev, symObjAddr: 0x2820, symBinAddr: 0x100004920, symSize: 0x8 }
  - { offsetInCU: 0xDF18, offset: 0xDF18, size: 0x8, addend: 0x0, symName: __ZNSt12length_errorC1B7v160006EPKc, symObjAddr: 0x288C, symBinAddr: 0x10000498C, symSize: 0x34 }
  - { offsetInCU: 0xDF4F, offset: 0xDF4F, size: 0x8, addend: 0x0, symName: __ZNSt12length_errorC2B7v160006EPKc, symObjAddr: 0x28C0, symBinAddr: 0x1000049C0, symSize: 0x4C }
  - { offsetInCU: 0xDF86, offset: 0xDF86, size: 0x8, addend: 0x0, symName: __ZNSt3__114__split_bufferI7MyInt_2RNS_9allocatorIS1_EEEC2EmmS4_, symObjAddr: 0x2960, symBinAddr: 0x100004A60, symSize: 0xD4 }
  - { offsetInCU: 0xDFF9, offset: 0xDFF9, size: 0x8, addend: 0x0, symName: __ZNSt3__117__compressed_pairIP7MyInt_2RNS_9allocatorIS1_EEEC1B7v160006IDnS5_EEOT_OT0_, symObjAddr: 0x2A34, symBinAddr: 0x100004B34, symSize: 0x3C }
  - { offsetInCU: 0xE050, offset: 0xE050, size: 0x8, addend: 0x0, symName: __ZNSt3__114__split_bufferI7MyInt_2RNS_9allocatorIS1_EEE7__allocB7v160006Ev, symObjAddr: 0x2AB0, symBinAddr: 0x100004BB0, symSize: 0x28 }
  - { offsetInCU: 0xE075, offset: 0xE075, size: 0x8, addend: 0x0, symName: __ZNSt3__114__split_bufferI7MyInt_2RNS_9allocatorIS1_EEE9__end_capB7v160006Ev, symObjAddr: 0x2AD8, symBinAddr: 0x100004BD8, symSize: 0x28 }
  - { offsetInCU: 0xE09A, offset: 0xE09A, size: 0x8, addend: 0x0, symName: __ZNSt3__117__compressed_pairIP7MyInt_2RNS_9allocatorIS1_EEEC2B7v160006IDnS5_EEOT_OT0_, symObjAddr: 0x2B00, symBinAddr: 0x100004C00, symSize: 0x48 }
  - { offsetInCU: 0xE0F1, offset: 0xE0F1, size: 0x8, addend: 0x0, symName: __ZNSt3__122__compressed_pair_elemIRNS_9allocatorI7MyInt_2EELi1ELb0EEC2B7v160006IS4_vEEOT_, symObjAddr: 0x2B48, symBinAddr: 0x100004C48, symSize: 0x20 }
  - { offsetInCU: 0xE132, offset: 0xE132, size: 0x8, addend: 0x0, symName: __ZNSt3__19allocatorI7MyInt_2E8allocateB7v160006Em, symObjAddr: 0x2B68, symBinAddr: 0x100004C68, symSize: 0x84 }
  - { offsetInCU: 0xE165, offset: 0xE165, size: 0x8, addend: 0x0, symName: __ZNSt3__117__compressed_pairIP7MyInt_2RNS_9allocatorIS1_EEE6secondB7v160006Ev, symObjAddr: 0x2C6C, symBinAddr: 0x100004D6C, symSize: 0x28 }
  - { offsetInCU: 0xE18A, offset: 0xE18A, size: 0x8, addend: 0x0, symName: __ZNSt3__122__compressed_pair_elemIRNS_9allocatorI7MyInt_2EELi1ELb0EE5__getB7v160006Ev, symObjAddr: 0x2C94, symBinAddr: 0x100004D94, symSize: 0x18 }
  - { offsetInCU: 0xE1AF, offset: 0xE1AF, size: 0x8, addend: 0x0, symName: __ZNSt3__117__compressed_pairIP7MyInt_2RNS_9allocatorIS1_EEE5firstB7v160006Ev, symObjAddr: 0x2CAC, symBinAddr: 0x100004DAC, symSize: 0x24 }
  - { offsetInCU: 0xE1D4, offset: 0xE1D4, size: 0x8, addend: 0x0, symName: __ZNSt3__116reverse_iteratorIP7MyInt_2EC1B7v160006ES2_, symObjAddr: 0x2E04, symBinAddr: 0x100004F04, symSize: 0x34 }
  - { offsetInCU: 0xE20B, offset: 0xE20B, size: 0x8, addend: 0x0, symName: __ZNKSt3__116reverse_iteratorIP7MyInt_2E4baseB7v160006Ev, symObjAddr: 0x2E38, symBinAddr: 0x100004F38, symSize: 0x18 }
  - { offsetInCU: 0xE230, offset: 0xE230, size: 0x8, addend: 0x0, symName: __ZNKSt3__16vectorI7MyInt_2NS_9allocatorIS1_EEE14__annotate_newB7v160006Em, symObjAddr: 0x2E8C, symBinAddr: 0x100004F8C, symSize: 0xAC }
  - { offsetInCU: 0xE264, offset: 0xE264, size: 0x8, addend: 0x0, symName: __ZNSt3__129_AllocatorDestroyRangeReverseINS_9allocatorI7MyInt_2EENS_16reverse_iteratorIPS2_EEEC1B7v160006ERS3_RS6_S9_, symObjAddr: 0x2F94, symBinAddr: 0x100005094, symSize: 0x44 }
  - { offsetInCU: 0xE2BF, offset: 0xE2BF, size: 0x8, addend: 0x0, symName: __ZNSt3__116allocator_traitsINS_9allocatorI7MyInt_2EEE9constructB7v160006IS2_JS2_EvEEvRS3_PT_DpOT0_, symObjAddr: 0x3020, symBinAddr: 0x100005120, symSize: 0x34 }
  - { offsetInCU: 0xE316, offset: 0xE316, size: 0x8, addend: 0x0, symName: __ZNKSt3__116reverse_iteratorIP7MyInt_2EdeB7v160006Ev, symObjAddr: 0x3078, symBinAddr: 0x100005178, symSize: 0x28 }
  - { offsetInCU: 0xE349, offset: 0xE349, size: 0x8, addend: 0x0, symName: __ZNSt3__116reverse_iteratorIP7MyInt_2EppB7v160006Ev, symObjAddr: 0x30A0, symBinAddr: 0x1000051A0, symSize: 0x20 }
  - { offsetInCU: 0xE36E, offset: 0xE36E, size: 0x8, addend: 0x0, symName: __ZNSt3__128__exception_guard_exceptionsINS_29_AllocatorDestroyRangeReverseINS_9allocatorI7MyInt_2EENS_16reverse_iteratorIPS3_EEEEE10__completeB7v160006Ev, symObjAddr: 0x30C0, symBinAddr: 0x1000051C0, symSize: 0x1C }
  - { offsetInCU: 0xE393, offset: 0xE393, size: 0x8, addend: 0x0, symName: __ZNSt3__128__exception_guard_exceptionsINS_29_AllocatorDestroyRangeReverseINS_9allocatorI7MyInt_2EENS_16reverse_iteratorIPS3_EEEEED1B7v160006Ev, symObjAddr: 0x30DC, symBinAddr: 0x1000051DC, symSize: 0x2C }
  - { offsetInCU: 0xE3BC, offset: 0xE3BC, size: 0x8, addend: 0x0, symName: __ZNSt3__128__exception_guard_exceptionsINS_29_AllocatorDestroyRangeReverseINS_9allocatorI7MyInt_2EENS_16reverse_iteratorIPS3_EEEEEC1B7v160006ES8_, symObjAddr: 0x3108, symBinAddr: 0x100005208, symSize: 0x34 }
  - { offsetInCU: 0xE3F4, offset: 0xE3F4, size: 0x8, addend: 0x0, symName: __ZNSt3__128__exception_guard_exceptionsINS_29_AllocatorDestroyRangeReverseINS_9allocatorI7MyInt_2EENS_16reverse_iteratorIPS3_EEEEEC2B7v160006ES8_, symObjAddr: 0x313C, symBinAddr: 0x10000523C, symSize: 0x30 }
  - { offsetInCU: 0xE42C, offset: 0xE42C, size: 0x8, addend: 0x0, symName: __ZNSt3__129_AllocatorDestroyRangeReverseINS_9allocatorI7MyInt_2EENS_16reverse_iteratorIPS2_EEEC2B7v160006ERS3_RS6_S9_, symObjAddr: 0x316C, symBinAddr: 0x10000526C, symSize: 0x38 }
  - { offsetInCU: 0xE482, offset: 0xE482, size: 0x8, addend: 0x0, symName: __ZNSt3__19allocatorI7MyInt_2E9constructB7v160006IS1_JS1_EEEvPT_DpOT0_, symObjAddr: 0x31A4, symBinAddr: 0x1000052A4, symSize: 0x30 }
  - { offsetInCU: 0xE4DC, offset: 0xE4DC, size: 0x8, addend: 0x0, symName: __ZNSt3__119__to_address_helperINS_16reverse_iteratorIP7MyInt_2EEvE6__callB7v160006ERKS4_, symObjAddr: 0x31D4, symBinAddr: 0x1000052D4, symSize: 0x4C }
  - { offsetInCU: 0xE4FF, offset: 0xE4FF, size: 0x8, addend: 0x0, symName: __ZNKSt3__116reverse_iteratorIP7MyInt_2EptB7v160006Ev, symObjAddr: 0x3220, symBinAddr: 0x100005320, symSize: 0x24 }
  - { offsetInCU: 0xE524, offset: 0xE524, size: 0x8, addend: 0x0, symName: __ZNSt3__128__exception_guard_exceptionsINS_29_AllocatorDestroyRangeReverseINS_9allocatorI7MyInt_2EENS_16reverse_iteratorIPS3_EEEEED2B7v160006Ev, symObjAddr: 0x3244, symBinAddr: 0x100005344, symSize: 0x48 }
  - { offsetInCU: 0xE54D, offset: 0xE54D, size: 0x8, addend: 0x0, symName: __ZNKSt3__129_AllocatorDestroyRangeReverseINS_9allocatorI7MyInt_2EENS_16reverse_iteratorIPS2_EEEclB7v160006Ev, symObjAddr: 0x328C, symBinAddr: 0x10000538C, symSize: 0xB4 }
  - { offsetInCU: 0xE573, offset: 0xE573, size: 0x8, addend: 0x0, symName: __ZNSt3__116reverse_iteratorINS0_IP7MyInt_2EEEC1B7v160006ES3_, symObjAddr: 0x33B0, symBinAddr: 0x1000054B0, symSize: 0x3C }
  - { offsetInCU: 0xE5AA, offset: 0xE5AA, size: 0x8, addend: 0x0, symName: __ZNSt3__116reverse_iteratorINS0_IP7MyInt_2EEEppB7v160006Ev, symObjAddr: 0x3470, symBinAddr: 0x100005570, symSize: 0x30 }
  - { offsetInCU: 0xE5CF, offset: 0xE5CF, size: 0x8, addend: 0x0, symName: __ZNKSt3__116reverse_iteratorINS0_IP7MyInt_2EEE4baseB7v160006Ev, symObjAddr: 0x34A0, symBinAddr: 0x1000055A0, symSize: 0x24 }
  - { offsetInCU: 0xE5F9, offset: 0xE5F9, size: 0x8, addend: 0x0, symName: __ZNSt3__119__to_address_helperINS_16reverse_iteratorINS1_IP7MyInt_2EEEEvE6__callB7v160006ERKS5_, symObjAddr: 0x34C4, symBinAddr: 0x1000055C4, symSize: 0x4C }
  - { offsetInCU: 0xE61C, offset: 0xE61C, size: 0x8, addend: 0x0, symName: __ZNKSt3__116reverse_iteratorINS0_IP7MyInt_2EEEptB7v160006Ev, symObjAddr: 0x3510, symBinAddr: 0x100005610, symSize: 0x24 }
  - { offsetInCU: 0xE641, offset: 0xE641, size: 0x8, addend: 0x0, symName: __ZNKSt3__116reverse_iteratorINS0_IP7MyInt_2EEEdeB7v160006Ev, symObjAddr: 0x3534, symBinAddr: 0x100005634, symSize: 0x34 }
  - { offsetInCU: 0xE674, offset: 0xE674, size: 0x8, addend: 0x0, symName: __ZNSt3__116reverse_iteratorIP7MyInt_2EmmB7v160006Ev, symObjAddr: 0x3568, symBinAddr: 0x100005668, symSize: 0x20 }
  - { offsetInCU: 0xE699, offset: 0xE699, size: 0x8, addend: 0x0, symName: __ZNSt3__116reverse_iteratorINS0_IP7MyInt_2EEEC2B7v160006ES3_, symObjAddr: 0x3588, symBinAddr: 0x100005688, symSize: 0x2C }
  - { offsetInCU: 0xE6D0, offset: 0xE6D0, size: 0x8, addend: 0x0, symName: __ZNSt3__116reverse_iteratorIP7MyInt_2EC2B7v160006ES2_, symObjAddr: 0x35B4, symBinAddr: 0x1000056B4, symSize: 0x28 }
  - { offsetInCU: 0xE707, offset: 0xE707, size: 0x8, addend: 0x0, symName: __ZNSt3__114__split_bufferI7MyInt_2RNS_9allocatorIS1_EEED2Ev, symObjAddr: 0x35DC, symBinAddr: 0x1000056DC, symSize: 0x80 }
  - { offsetInCU: 0xE732, offset: 0xE732, size: 0x8, addend: 0x0, symName: __ZNSt3__114__split_bufferI7MyInt_2RNS_9allocatorIS1_EEE5clearB7v160006Ev, symObjAddr: 0x365C, symBinAddr: 0x10000575C, symSize: 0x28 }
  - { offsetInCU: 0xE757, offset: 0xE757, size: 0x8, addend: 0x0, symName: __ZNKSt3__114__split_bufferI7MyInt_2RNS_9allocatorIS1_EEE8capacityB7v160006Ev, symObjAddr: 0x3684, symBinAddr: 0x100005784, symSize: 0x40 }
  - { offsetInCU: 0xE77C, offset: 0xE77C, size: 0x8, addend: 0x0, symName: __ZNSt3__114__split_bufferI7MyInt_2RNS_9allocatorIS1_EEE17__destruct_at_endB7v160006EPS1_, symObjAddr: 0x36C4, symBinAddr: 0x1000057C4, symSize: 0x2C }
  - { offsetInCU: 0xE7AE, offset: 0xE7AE, size: 0x8, addend: 0x0, symName: __ZNSt3__114__split_bufferI7MyInt_2RNS_9allocatorIS1_EEE17__destruct_at_endB7v160006EPS1_NS_17integral_constantIbLb0EEE, symObjAddr: 0x36F0, symBinAddr: 0x1000057F0, symSize: 0x94 }
  - { offsetInCU: 0xE7EE, offset: 0xE7EE, size: 0x8, addend: 0x0, symName: __ZNKSt3__114__split_bufferI7MyInt_2RNS_9allocatorIS1_EEE9__end_capB7v160006Ev, symObjAddr: 0x3784, symBinAddr: 0x100005884, symSize: 0x28 }
  - { offsetInCU: 0xE813, offset: 0xE813, size: 0x8, addend: 0x0, symName: __ZNKSt3__117__compressed_pairIP7MyInt_2RNS_9allocatorIS1_EEE5firstB7v160006Ev, symObjAddr: 0x37AC, symBinAddr: 0x1000058AC, symSize: 0x24 }
  - { offsetInCU: 0xE838, offset: 0xE838, size: 0x8, addend: 0x0, symName: __ZNSt3__16vectorI7MyInt_2NS_9allocatorIS1_EEE11__make_iterB7v160006EPS1_, symObjAddr: 0x37D0, symBinAddr: 0x1000058D0, symSize: 0x34 }
  - { offsetInCU: 0xE86C, offset: 0xE86C, size: 0x8, addend: 0x0, symName: __ZNSt3__111__wrap_iterIP7MyInt_2EC1B7v160006EPKvS2_, symObjAddr: 0x3804, symBinAddr: 0x100005904, symSize: 0x3C }
  - { offsetInCU: 0xE8B1, offset: 0xE8B1, size: 0x8, addend: 0x0, symName: __ZNSt3__111__wrap_iterIP7MyInt_2EC2B7v160006EPKvS2_, symObjAddr: 0x3840, symBinAddr: 0x100005940, symSize: 0x24 }
  - { offsetInCU: 0xE8F6, offset: 0xE8F6, size: 0x8, addend: 0x0, symName: __ZNKSt3__111__wrap_iterIP7MyInt_2E4baseB7v160006Ev, symObjAddr: 0x38AC, symBinAddr: 0x1000059AC, symSize: 0x18 }
  - { offsetInCU: 0xE91B, offset: 0xE91B, size: 0x8, addend: 0x0, symName: __ZNSt3__111__wrap_iterIP7MyInt_2EppB7v160006Ev, symObjAddr: 0x38C4, symBinAddr: 0x1000059C4, symSize: 0x20 }
  - { offsetInCU: 0xE940, offset: 0xE940, size: 0x8, addend: 0x0, symName: __ZNSt3__16vectorIP7MyInt_1NS_9allocatorIS2_EEEC2B7v160006Ev, symObjAddr: 0x38E4, symBinAddr: 0x1000059E4, symSize: 0x4C }
  - { offsetInCU: 0xE969, offset: 0xE969, size: 0x8, addend: 0x0, symName: __ZNSt3__117__compressed_pairIPP7MyInt_1NS_9allocatorIS2_EEEC1B7v160006IDnNS_18__default_init_tagEEEOT_OT0_, symObjAddr: 0x3930, symBinAddr: 0x100005A30, symSize: 0x3C }
  - { offsetInCU: 0xE9C0, offset: 0xE9C0, size: 0x8, addend: 0x0, symName: __ZNSt3__117__compressed_pairIPP7MyInt_1NS_9allocatorIS2_EEEC2B7v160006IDnNS_18__default_init_tagEEEOT_OT0_, symObjAddr: 0x397C, symBinAddr: 0x100005A7C, symSize: 0x40 }
  - { offsetInCU: 0xEA17, offset: 0xEA17, size: 0x8, addend: 0x0, symName: __ZNSt3__122__compressed_pair_elemIPP7MyInt_1Li0ELb0EEC2B7v160006IDnvEEOT_, symObjAddr: 0x39BC, symBinAddr: 0x100005ABC, symSize: 0x1C }
  - { offsetInCU: 0xEA58, offset: 0xEA58, size: 0x8, addend: 0x0, symName: __ZNSt3__122__compressed_pair_elemINS_9allocatorIP7MyInt_1EELi1ELb1EEC2B7v160006ENS_18__default_init_tagE, symObjAddr: 0x39D8, symBinAddr: 0x100005AD8, symSize: 0x2C }
  - { offsetInCU: 0xEA8C, offset: 0xEA8C, size: 0x8, addend: 0x0, symName: __ZNSt3__19allocatorIP7MyInt_1EC2B7v160006Ev, symObjAddr: 0x3A04, symBinAddr: 0x100005B04, symSize: 0x2C }
  - { offsetInCU: 0xEAB5, offset: 0xEAB5, size: 0x8, addend: 0x0, symName: __ZNSt3__116__non_trivial_ifILb1ENS_9allocatorIP7MyInt_1EEEC2B7v160006Ev, symObjAddr: 0x3A30, symBinAddr: 0x100005B30, symSize: 0x14 }
  - { offsetInCU: 0xEADE, offset: 0xEADE, size: 0x8, addend: 0x0, symName: __ZNSt3__16vectorIP7MyInt_1NS_9allocatorIS2_EEED2B7v160006Ev, symObjAddr: 0x3A44, symBinAddr: 0x100005B44, symSize: 0x3C }
  - { offsetInCU: 0xEB07, offset: 0xEB07, size: 0x8, addend: 0x0, symName: __ZNSt3__16vectorIP7MyInt_1NS_9allocatorIS2_EEE16__destroy_vectorC1ERS5_, symObjAddr: 0x3A80, symBinAddr: 0x100005B80, symSize: 0x34 }
  - { offsetInCU: 0xEB3F, offset: 0xEB3F, size: 0x8, addend: 0x0, symName: __ZNSt3__16vectorIP7MyInt_1NS_9allocatorIS2_EEE16__destroy_vectorclB7v160006Ev, symObjAddr: 0x3AB4, symBinAddr: 0x100005BB4, symSize: 0x9C }
  - { offsetInCU: 0xEB64, offset: 0xEB64, size: 0x8, addend: 0x0, symName: __ZNSt3__16vectorIP7MyInt_1NS_9allocatorIS2_EEE16__destroy_vectorC2ERS5_, symObjAddr: 0x3B50, symBinAddr: 0x100005C50, symSize: 0x20 }
  - { offsetInCU: 0xEB9C, offset: 0xEB9C, size: 0x8, addend: 0x0, symName: __ZNKSt3__16vectorIP7MyInt_1NS_9allocatorIS2_EEE17__annotate_deleteB7v160006Ev, symObjAddr: 0x3B70, symBinAddr: 0x100005C70, symSize: 0xB8 }
  - { offsetInCU: 0xEBC1, offset: 0xEBC1, size: 0x8, addend: 0x0, symName: __ZNSt3__16vectorIP7MyInt_1NS_9allocatorIS2_EEE7__clearB7v160006Ev, symObjAddr: 0x3C38, symBinAddr: 0x100005D38, symSize: 0x28 }
  - { offsetInCU: 0xEBE6, offset: 0xEBE6, size: 0x8, addend: 0x0, symName: __ZNSt3__116allocator_traitsINS_9allocatorIP7MyInt_1EEE10deallocateB7v160006ERS4_PS3_m, symObjAddr: 0x3C60, symBinAddr: 0x100005D60, symSize: 0x34 }
  - { offsetInCU: 0xEC28, offset: 0xEC28, size: 0x8, addend: 0x0, symName: __ZNSt3__16vectorIP7MyInt_1NS_9allocatorIS2_EEE7__allocB7v160006Ev, symObjAddr: 0x3C94, symBinAddr: 0x100005D94, symSize: 0x28 }
  - { offsetInCU: 0xEC4D, offset: 0xEC4D, size: 0x8, addend: 0x0, symName: __ZNKSt3__16vectorIP7MyInt_1NS_9allocatorIS2_EEE8capacityB7v160006Ev, symObjAddr: 0x3CBC, symBinAddr: 0x100005DBC, symSize: 0x40 }
  - { offsetInCU: 0xEC72, offset: 0xEC72, size: 0x8, addend: 0x0, symName: __ZNKSt3__16vectorIP7MyInt_1NS_9allocatorIS2_EEE31__annotate_contiguous_containerB7v160006EPKvS7_S7_S7_, symObjAddr: 0x3CFC, symBinAddr: 0x100005DFC, symSize: 0x20 }
  - { offsetInCU: 0xECC3, offset: 0xECC3, size: 0x8, addend: 0x0, symName: __ZNKSt3__16vectorIP7MyInt_1NS_9allocatorIS2_EEE4dataB7v160006Ev, symObjAddr: 0x3D1C, symBinAddr: 0x100005E1C, symSize: 0x28 }
  - { offsetInCU: 0xECE8, offset: 0xECE8, size: 0x8, addend: 0x0, symName: __ZNKSt3__16vectorIP7MyInt_1NS_9allocatorIS2_EEE4sizeB7v160006Ev, symObjAddr: 0x3D44, symBinAddr: 0x100005E44, symSize: 0x28 }
  - { offsetInCU: 0xED0D, offset: 0xED0D, size: 0x8, addend: 0x0, symName: __ZNSt3__16vectorIP7MyInt_1NS_9allocatorIS2_EEE22__base_destruct_at_endB7v160006EPS2_, symObjAddr: 0x3D80, symBinAddr: 0x100005E80, symSize: 0xA0 }
  - { offsetInCU: 0xED50, offset: 0xED50, size: 0x8, addend: 0x0, symName: __ZNSt3__116allocator_traitsINS_9allocatorIP7MyInt_1EEE7destroyB7v160006IS3_vEEvRS4_PT_, symObjAddr: 0x3E20, symBinAddr: 0x100005F20, symSize: 0x2C }
  - { offsetInCU: 0xED8D, offset: 0xED8D, size: 0x8, addend: 0x0, symName: __ZNSt3__19allocatorIP7MyInt_1E7destroyB7v160006EPS2_, symObjAddr: 0x3E4C, symBinAddr: 0x100005F4C, symSize: 0x14 }
  - { offsetInCU: 0xEDC0, offset: 0xEDC0, size: 0x8, addend: 0x0, symName: __ZNSt3__19allocatorIP7MyInt_1E10deallocateB7v160006EPS2_m, symObjAddr: 0x3E60, symBinAddr: 0x100005F60, symSize: 0x70 }
  - { offsetInCU: 0xEE01, offset: 0xEE01, size: 0x8, addend: 0x0, symName: __ZNSt3__117__compressed_pairIPP7MyInt_1NS_9allocatorIS2_EEE6secondB7v160006Ev, symObjAddr: 0x3ED0, symBinAddr: 0x100005FD0, symSize: 0x24 }
  - { offsetInCU: 0xEE26, offset: 0xEE26, size: 0x8, addend: 0x0, symName: __ZNSt3__122__compressed_pair_elemINS_9allocatorIP7MyInt_1EELi1ELb1EE5__getB7v160006Ev, symObjAddr: 0x3EF4, symBinAddr: 0x100005FF4, symSize: 0x14 }
  - { offsetInCU: 0xEE4B, offset: 0xEE4B, size: 0x8, addend: 0x0, symName: __ZNKSt3__16vectorIP7MyInt_1NS_9allocatorIS2_EEE9__end_capB7v160006Ev, symObjAddr: 0x3F08, symBinAddr: 0x100006008, symSize: 0x28 }
  - { offsetInCU: 0xEE70, offset: 0xEE70, size: 0x8, addend: 0x0, symName: __ZNKSt3__117__compressed_pairIPP7MyInt_1NS_9allocatorIS2_EEE5firstB7v160006Ev, symObjAddr: 0x3F30, symBinAddr: 0x100006030, symSize: 0x24 }
  - { offsetInCU: 0xEE95, offset: 0xEE95, size: 0x8, addend: 0x0, symName: __ZNKSt3__122__compressed_pair_elemIPP7MyInt_1Li0ELb0EE5__getB7v160006Ev, symObjAddr: 0x3F54, symBinAddr: 0x100006054, symSize: 0x14 }
  - { offsetInCU: 0xEEBA, offset: 0xEEBA, size: 0x8, addend: 0x0, symName: __ZNSt3__16vectorIP7MyInt_1NS_9allocatorIS2_EEE9__end_capB7v160006Ev, symObjAddr: 0x3F68, symBinAddr: 0x100006068, symSize: 0x28 }
  - { offsetInCU: 0xEEE4, offset: 0xEEE4, size: 0x8, addend: 0x0, symName: __ZNSt3__16vectorIP7MyInt_1NS_9allocatorIS2_EEE22__construct_one_at_endB7v160006IJS2_EEEvDpOT_, symObjAddr: 0x3F90, symBinAddr: 0x100006090, symSize: 0x98 }
  - { offsetInCU: 0xEF31, offset: 0xEF31, size: 0x8, addend: 0x0, symName: __ZNSt3__16vectorIP7MyInt_1NS_9allocatorIS2_EEE21__push_back_slow_pathIS2_EEvOT_, symObjAddr: 0x4028, symBinAddr: 0x100006128, symSize: 0xE0 }
  - { offsetInCU: 0xEF8E, offset: 0xEF8E, size: 0x8, addend: 0x0, symName: __ZNSt3__117__compressed_pairIPP7MyInt_1NS_9allocatorIS2_EEE5firstB7v160006Ev, symObjAddr: 0x4108, symBinAddr: 0x100006208, symSize: 0x24 }
  - { offsetInCU: 0xEFB3, offset: 0xEFB3, size: 0x8, addend: 0x0, symName: __ZNSt3__122__compressed_pair_elemIPP7MyInt_1Li0ELb0EE5__getB7v160006Ev, symObjAddr: 0x412C, symBinAddr: 0x10000622C, symSize: 0x14 }
  - { offsetInCU: 0xEFF1, offset: 0xEFF1, size: 0x8, addend: 0x0, symName: __ZNSt3__16vectorIP7MyInt_1NS_9allocatorIS2_EEE21_ConstructTransactionC1B7v160006ERS5_m, symObjAddr: 0x4140, symBinAddr: 0x100006240, symSize: 0x3C }
  - { offsetInCU: 0xF038, offset: 0xF038, size: 0x8, addend: 0x0, symName: __ZNSt3__116allocator_traitsINS_9allocatorIP7MyInt_1EEE9constructB7v160006IS3_JS3_EvEEvRS4_PT_DpOT0_, symObjAddr: 0x417C, symBinAddr: 0x10000627C, symSize: 0x34 }
  - { offsetInCU: 0xF08F, offset: 0xF08F, size: 0x8, addend: 0x0, symName: __ZNSt3__16vectorIP7MyInt_1NS_9allocatorIS2_EEE21_ConstructTransactionD1B7v160006Ev, symObjAddr: 0x41B0, symBinAddr: 0x1000062B0, symSize: 0x2C }
  - { offsetInCU: 0xF0B8, offset: 0xF0B8, size: 0x8, addend: 0x0, symName: __ZNSt3__16vectorIP7MyInt_1NS_9allocatorIS2_EEE21_ConstructTransactionC2B7v160006ERS5_m, symObjAddr: 0x41DC, symBinAddr: 0x1000062DC, symSize: 0x44 }
  - { offsetInCU: 0xF0FF, offset: 0xF0FF, size: 0x8, addend: 0x0, symName: __ZNSt3__19allocatorIP7MyInt_1E9constructB7v160006IS2_JS2_EEEvPT_DpOT0_, symObjAddr: 0x4220, symBinAddr: 0x100006320, symSize: 0x28 }
  - { offsetInCU: 0xF154, offset: 0xF154, size: 0x8, addend: 0x0, symName: __ZNSt3__16vectorIP7MyInt_1NS_9allocatorIS2_EEE21_ConstructTransactionD2B7v160006Ev, symObjAddr: 0x4248, symBinAddr: 0x100006348, symSize: 0x20 }
  - { offsetInCU: 0xF17C, offset: 0xF17C, size: 0x8, addend: 0x0, symName: __ZNKSt3__16vectorIP7MyInt_1NS_9allocatorIS2_EEE11__recommendB7v160006Em, symObjAddr: 0x4268, symBinAddr: 0x100006368, symSize: 0xB4 }
  - { offsetInCU: 0xF1D0, offset: 0xF1D0, size: 0x8, addend: 0x0, symName: __ZNSt3__114__split_bufferIP7MyInt_1RNS_9allocatorIS2_EEEC1EmmS5_, symObjAddr: 0x431C, symBinAddr: 0x10000641C, symSize: 0x44 }
  - { offsetInCU: 0xF225, offset: 0xF225, size: 0x8, addend: 0x0, symName: __ZNSt3__114__split_bufferIP7MyInt_1RNS_9allocatorIS2_EEED1Ev, symObjAddr: 0x4478, symBinAddr: 0x100006578, symSize: 0x2C }
  - { offsetInCU: 0xF24F, offset: 0xF24F, size: 0x8, addend: 0x0, symName: __ZNKSt3__16vectorIP7MyInt_1NS_9allocatorIS2_EEE8max_sizeEv, symObjAddr: 0x44A4, symBinAddr: 0x1000065A4, symSize: 0x74 }
  - { offsetInCU: 0xF276, offset: 0xF276, size: 0x8, addend: 0x0, symName: __ZNKSt3__16vectorIP7MyInt_1NS_9allocatorIS2_EEE20__throw_length_errorB7v160006Ev, symObjAddr: 0x4518, symBinAddr: 0x100006618, symSize: 0x1C }
  - { offsetInCU: 0xF2A5, offset: 0xF2A5, size: 0x8, addend: 0x0, symName: __ZNSt3__116allocator_traitsINS_9allocatorIP7MyInt_1EEE8max_sizeB7v160006IS4_vEEmRKS4_, symObjAddr: 0x4534, symBinAddr: 0x100006634, symSize: 0x24 }
  - { offsetInCU: 0xF2D3, offset: 0xF2D3, size: 0x8, addend: 0x0, symName: __ZNKSt3__16vectorIP7MyInt_1NS_9allocatorIS2_EEE7__allocB7v160006Ev, symObjAddr: 0x4558, symBinAddr: 0x100006658, symSize: 0x28 }
  - { offsetInCU: 0xF2F8, offset: 0xF2F8, size: 0x8, addend: 0x0, symName: __ZNKSt3__19allocatorIP7MyInt_1E8max_sizeB7v160006Ev, symObjAddr: 0x4580, symBinAddr: 0x100006680, symSize: 0x14 }
  - { offsetInCU: 0xF31D, offset: 0xF31D, size: 0x8, addend: 0x0, symName: __ZNKSt3__117__compressed_pairIPP7MyInt_1NS_9allocatorIS2_EEE6secondB7v160006Ev, symObjAddr: 0x4594, symBinAddr: 0x100006694, symSize: 0x24 }
  - { offsetInCU: 0xF342, offset: 0xF342, size: 0x8, addend: 0x0, symName: __ZNKSt3__122__compressed_pair_elemINS_9allocatorIP7MyInt_1EELi1ELb1EE5__getB7v160006Ev, symObjAddr: 0x45B8, symBinAddr: 0x1000066B8, symSize: 0x14 }
  - { offsetInCU: 0xF367, offset: 0xF367, size: 0x8, addend: 0x0, symName: __ZNSt3__114__split_bufferIP7MyInt_1RNS_9allocatorIS2_EEEC2EmmS5_, symObjAddr: 0x45CC, symBinAddr: 0x1000066CC, symSize: 0xD4 }
  - { offsetInCU: 0xF3DA, offset: 0xF3DA, size: 0x8, addend: 0x0, symName: __ZNSt3__117__compressed_pairIPP7MyInt_1RNS_9allocatorIS2_EEEC1B7v160006IDnS6_EEOT_OT0_, symObjAddr: 0x46A0, symBinAddr: 0x1000067A0, symSize: 0x3C }
  - { offsetInCU: 0xF431, offset: 0xF431, size: 0x8, addend: 0x0, symName: __ZNSt3__114__split_bufferIP7MyInt_1RNS_9allocatorIS2_EEE7__allocB7v160006Ev, symObjAddr: 0x471C, symBinAddr: 0x10000681C, symSize: 0x28 }
  - { offsetInCU: 0xF456, offset: 0xF456, size: 0x8, addend: 0x0, symName: __ZNSt3__114__split_bufferIP7MyInt_1RNS_9allocatorIS2_EEE9__end_capB7v160006Ev, symObjAddr: 0x4744, symBinAddr: 0x100006844, symSize: 0x28 }
  - { offsetInCU: 0xF47B, offset: 0xF47B, size: 0x8, addend: 0x0, symName: __ZNSt3__117__compressed_pairIPP7MyInt_1RNS_9allocatorIS2_EEEC2B7v160006IDnS6_EEOT_OT0_, symObjAddr: 0x476C, symBinAddr: 0x10000686C, symSize: 0x48 }
  - { offsetInCU: 0xF4D2, offset: 0xF4D2, size: 0x8, addend: 0x0, symName: __ZNSt3__122__compressed_pair_elemIRNS_9allocatorIP7MyInt_1EELi1ELb0EEC2B7v160006IS5_vEEOT_, symObjAddr: 0x47B4, symBinAddr: 0x1000068B4, symSize: 0x20 }
  - { offsetInCU: 0xF513, offset: 0xF513, size: 0x8, addend: 0x0, symName: __ZNSt3__19allocatorIP7MyInt_1E8allocateB7v160006Em, symObjAddr: 0x47D4, symBinAddr: 0x1000068D4, symSize: 0x84 }
  - { offsetInCU: 0xF546, offset: 0xF546, size: 0x8, addend: 0x0, symName: __ZNSt3__117__compressed_pairIPP7MyInt_1RNS_9allocatorIS2_EEE6secondB7v160006Ev, symObjAddr: 0x4858, symBinAddr: 0x100006958, symSize: 0x28 }
  - { offsetInCU: 0xF56B, offset: 0xF56B, size: 0x8, addend: 0x0, symName: __ZNSt3__122__compressed_pair_elemIRNS_9allocatorIP7MyInt_1EELi1ELb0EE5__getB7v160006Ev, symObjAddr: 0x4880, symBinAddr: 0x100006980, symSize: 0x18 }
  - { offsetInCU: 0xF590, offset: 0xF590, size: 0x8, addend: 0x0, symName: __ZNSt3__117__compressed_pairIPP7MyInt_1RNS_9allocatorIS2_EEE5firstB7v160006Ev, symObjAddr: 0x4898, symBinAddr: 0x100006998, symSize: 0x24 }
  - { offsetInCU: 0xF5B5, offset: 0xF5B5, size: 0x8, addend: 0x0, symName: __ZNSt3__116reverse_iteratorIPP7MyInt_1EC1B7v160006ES3_, symObjAddr: 0x49A4, symBinAddr: 0x100006AA4, symSize: 0x34 }
  - { offsetInCU: 0xF5EC, offset: 0xF5EC, size: 0x8, addend: 0x0, symName: __ZNKSt3__116reverse_iteratorIPP7MyInt_1E4baseB7v160006Ev, symObjAddr: 0x49D8, symBinAddr: 0x100006AD8, symSize: 0x18 }
  - { offsetInCU: 0xF611, offset: 0xF611, size: 0x8, addend: 0x0, symName: __ZNKSt3__16vectorIP7MyInt_1NS_9allocatorIS2_EEE14__annotate_newB7v160006Em, symObjAddr: 0x4A2C, symBinAddr: 0x100006B2C, symSize: 0xAC }
  - { offsetInCU: 0xF645, offset: 0xF645, size: 0x8, addend: 0x0, symName: __ZNKSt3__116reverse_iteratorIPP7MyInt_1EdeB7v160006Ev, symObjAddr: 0x4B80, symBinAddr: 0x100006C80, symSize: 0x28 }
  - { offsetInCU: 0xF678, offset: 0xF678, size: 0x8, addend: 0x0, symName: __ZNSt3__116reverse_iteratorIPP7MyInt_1EppB7v160006Ev, symObjAddr: 0x4BA8, symBinAddr: 0x100006CA8, symSize: 0x20 }
  - { offsetInCU: 0xF6A2, offset: 0xF6A2, size: 0x8, addend: 0x0, symName: __ZNSt3__119__to_address_helperINS_16reverse_iteratorIPP7MyInt_1EEvE6__callB7v160006ERKS5_, symObjAddr: 0x4C40, symBinAddr: 0x100006D40, symSize: 0x4C }
  - { offsetInCU: 0xF6C5, offset: 0xF6C5, size: 0x8, addend: 0x0, symName: __ZNKSt3__116reverse_iteratorIPP7MyInt_1EptB7v160006Ev, symObjAddr: 0x4C8C, symBinAddr: 0x100006D8C, symSize: 0x24 }
  - { offsetInCU: 0xF70D, offset: 0xF70D, size: 0x8, addend: 0x0, symName: __ZNKSt3__111__move_loopINS_17_ClassicAlgPolicyEEclB7v160006INS_16reverse_iteratorIPP7MyInt_1EES8_S8_EENS_4pairIT_T1_EESA_T0_SB_, symObjAddr: 0x4F40, symBinAddr: 0x100007040, symSize: 0xA0 }
  - { offsetInCU: 0xF777, offset: 0xF777, size: 0x8, addend: 0x0, symName: __ZNSt3__18_IterOpsINS_17_ClassicAlgPolicyEE11__iter_moveB7v160006IRNS_16reverse_iteratorIPP7MyInt_1EEEENS_9enable_ifIXsr12is_referenceIDTdeclsr3stdE7declvalIRT_EEEEE5valueEDTclsr3stdE4movedeclsr3stdE7declvalISC_EEEEE4typeEOSB_, symObjAddr: 0x5140, symBinAddr: 0x100007240, symSize: 0x28 }
  - { offsetInCU: 0xF7A3, offset: 0xF7A3, size: 0x8, addend: 0x0, symName: __ZNSt3__18_IterOpsINS_17_ClassicAlgPolicyEE25__validate_iter_referenceB7v160006IRNS_16reverse_iteratorIPP7MyInt_1EEEEvv, symObjAddr: 0x5168, symBinAddr: 0x100007268, symSize: 0x4 }
  - { offsetInCU: 0xF7C1, offset: 0xF7C1, size: 0x8, addend: 0x0, symName: __ZNSt3__118__unwrap_iter_implINS_16reverse_iteratorIPP7MyInt_1EELb0EE8__unwrapB7v160006ES5_, symObjAddr: 0x516C, symBinAddr: 0x10000726C, symSize: 0x24 }
  - { offsetInCU: 0xF7E4, offset: 0xF7E4, size: 0x8, addend: 0x0, symName: __ZNSt3__14pairINS_16reverse_iteratorIPP7MyInt_1EES5_EC1B7v160006ERKS5_S8_, symObjAddr: 0x5190, symBinAddr: 0x100007290, symSize: 0x3C }
  - { offsetInCU: 0xF829, offset: 0xF829, size: 0x8, addend: 0x0, symName: __ZNSt3__14pairINS_16reverse_iteratorIPP7MyInt_1EES5_EC2B7v160006ERKS5_S8_, symObjAddr: 0x51CC, symBinAddr: 0x1000072CC, symSize: 0x34 }
  - { offsetInCU: 0xF86E, offset: 0xF86E, size: 0x8, addend: 0x0, symName: __ZNSt3__118__unwrap_iter_implINS_16reverse_iteratorIPP7MyInt_1EELb0EE8__rewrapB7v160006ES5_S5_, symObjAddr: 0x5200, symBinAddr: 0x100007300, symSize: 0x2C }
  - { offsetInCU: 0xF89C, offset: 0xF89C, size: 0x8, addend: 0x0, symName: __ZNSt3__116reverse_iteratorIPP7MyInt_1EC2B7v160006ES3_, symObjAddr: 0x522C, symBinAddr: 0x10000732C, symSize: 0x28 }
  - { offsetInCU: 0xF8D3, offset: 0xF8D3, size: 0x8, addend: 0x0, symName: __ZNSt3__114__split_bufferIP7MyInt_1RNS_9allocatorIS2_EEED2Ev, symObjAddr: 0x5254, symBinAddr: 0x100007354, symSize: 0x80 }
  - { offsetInCU: 0xF8FE, offset: 0xF8FE, size: 0x8, addend: 0x0, symName: __ZNSt3__114__split_bufferIP7MyInt_1RNS_9allocatorIS2_EEE5clearB7v160006Ev, symObjAddr: 0x52D4, symBinAddr: 0x1000073D4, symSize: 0x28 }
  - { offsetInCU: 0xF923, offset: 0xF923, size: 0x8, addend: 0x0, symName: __ZNKSt3__114__split_bufferIP7MyInt_1RNS_9allocatorIS2_EEE8capacityB7v160006Ev, symObjAddr: 0x52FC, symBinAddr: 0x1000073FC, symSize: 0x40 }
  - { offsetInCU: 0xF948, offset: 0xF948, size: 0x8, addend: 0x0, symName: __ZNSt3__114__split_bufferIP7MyInt_1RNS_9allocatorIS2_EEE17__destruct_at_endB7v160006EPS2_, symObjAddr: 0x533C, symBinAddr: 0x10000743C, symSize: 0x2C }
  - { offsetInCU: 0xF97A, offset: 0xF97A, size: 0x8, addend: 0x0, symName: __ZNSt3__114__split_bufferIP7MyInt_1RNS_9allocatorIS2_EEE17__destruct_at_endB7v160006EPS2_NS_17integral_constantIbLb0EEE, symObjAddr: 0x5368, symBinAddr: 0x100007468, symSize: 0x94 }
  - { offsetInCU: 0xF9BA, offset: 0xF9BA, size: 0x8, addend: 0x0, symName: __ZNKSt3__114__split_bufferIP7MyInt_1RNS_9allocatorIS2_EEE9__end_capB7v160006Ev, symObjAddr: 0x53FC, symBinAddr: 0x1000074FC, symSize: 0x28 }
  - { offsetInCU: 0xF9DF, offset: 0xF9DF, size: 0x8, addend: 0x0, symName: __ZNKSt3__117__compressed_pairIPP7MyInt_1RNS_9allocatorIS2_EEE5firstB7v160006Ev, symObjAddr: 0x5424, symBinAddr: 0x100007524, symSize: 0x24 }
  - { offsetInCU: 0xFA04, offset: 0xFA04, size: 0x8, addend: 0x0, symName: __ZNSt3__16vectorIP7MyInt_1NS_9allocatorIS2_EEE11__make_iterB7v160006EPS2_, symObjAddr: 0x5448, symBinAddr: 0x100007548, symSize: 0x34 }
  - { offsetInCU: 0xFA38, offset: 0xFA38, size: 0x8, addend: 0x0, symName: __ZNSt3__111__wrap_iterIPP7MyInt_1EC1B7v160006EPKvS3_, symObjAddr: 0x547C, symBinAddr: 0x10000757C, symSize: 0x3C }
  - { offsetInCU: 0xFA7D, offset: 0xFA7D, size: 0x8, addend: 0x0, symName: __ZNSt3__111__wrap_iterIPP7MyInt_1EC2B7v160006EPKvS3_, symObjAddr: 0x54B8, symBinAddr: 0x1000075B8, symSize: 0x24 }
  - { offsetInCU: 0xFAC2, offset: 0xFAC2, size: 0x8, addend: 0x0, symName: __ZNKSt3__111__wrap_iterIPP7MyInt_1E4baseB7v160006Ev, symObjAddr: 0x5524, symBinAddr: 0x100007624, symSize: 0x18 }
  - { offsetInCU: 0xFAE7, offset: 0xFAE7, size: 0x8, addend: 0x0, symName: __ZNSt3__111__wrap_iterIPP7MyInt_1EppB7v160006Ev, symObjAddr: 0x553C, symBinAddr: 0x10000763C, symSize: 0x20 }
...
